ARM GAS  C:\Users\LINETT~1\AppData\Local\Temp\ccFWOaIz.s 			page 1


   1              		.cpu cortex-m0
   2              		.fpu softvfp
   3              		.eabi_attribute 20, 1
   4              		.eabi_attribute 21, 1
   5              		.eabi_attribute 23, 3
   6              		.eabi_attribute 24, 1
   7              		.eabi_attribute 25, 1
   8              		.eabi_attribute 26, 1
   9              		.eabi_attribute 30, 6
  10              		.eabi_attribute 34, 0
  11              		.eabi_attribute 18, 4
  12              		.code	16
  13              		.file	"ADC_INT.c"
  14              		.text
  15              	.Ltext0:
  16              		.cfi_sections	.debug_frame
  17              		.section	.text.ADC_ISR,"ax",%progbits
  18              		.align	2
  19              		.global	ADC_ISR
  20              		.code	16
  21              		.thumb_func
  22              		.type	ADC_ISR, %function
  23              	ADC_ISR:
  24              	.LFB37:
  25              		.file 1 ".\\Generated_Source\\PSoC4\\ADC_INT.c"
   1:.\Generated_Source\PSoC4/ADC_INT.c **** /*******************************************************************************
   2:.\Generated_Source\PSoC4/ADC_INT.c **** * File Name: ADC_INT.c
   3:.\Generated_Source\PSoC4/ADC_INT.c **** * Version 2.30
   4:.\Generated_Source\PSoC4/ADC_INT.c **** *
   5:.\Generated_Source\PSoC4/ADC_INT.c **** *  Description:
   6:.\Generated_Source\PSoC4/ADC_INT.c **** *    This file contains the code that operates during the ADC_SAR interrupt
   7:.\Generated_Source\PSoC4/ADC_INT.c **** *    service routine.
   8:.\Generated_Source\PSoC4/ADC_INT.c **** *
   9:.\Generated_Source\PSoC4/ADC_INT.c **** *   Note:
  10:.\Generated_Source\PSoC4/ADC_INT.c **** *
  11:.\Generated_Source\PSoC4/ADC_INT.c **** ********************************************************************************
  12:.\Generated_Source\PSoC4/ADC_INT.c **** * Copyright 2008-2015, Cypress Semiconductor Corporation.  All rights reserved.
  13:.\Generated_Source\PSoC4/ADC_INT.c **** * You may use this file only in accordance with the license, terms, conditions,
  14:.\Generated_Source\PSoC4/ADC_INT.c **** * disclaimers, and limitations in the end user license agreement accompanying
  15:.\Generated_Source\PSoC4/ADC_INT.c **** * the software package with which this file was provided.
  16:.\Generated_Source\PSoC4/ADC_INT.c **** *******************************************************************************/
  17:.\Generated_Source\PSoC4/ADC_INT.c **** 
  18:.\Generated_Source\PSoC4/ADC_INT.c **** #include "ADC.h"
  19:.\Generated_Source\PSoC4/ADC_INT.c **** #include "cyapicallbacks.h"
  20:.\Generated_Source\PSoC4/ADC_INT.c **** 
  21:.\Generated_Source\PSoC4/ADC_INT.c **** 
  22:.\Generated_Source\PSoC4/ADC_INT.c **** /******************************************************************************
  23:.\Generated_Source\PSoC4/ADC_INT.c **** * Custom Declarations and Variables
  24:.\Generated_Source\PSoC4/ADC_INT.c **** * - add user inlcude files, prototypes and variables between the following
  25:.\Generated_Source\PSoC4/ADC_INT.c **** *   #START and #END tags
  26:.\Generated_Source\PSoC4/ADC_INT.c **** ******************************************************************************/
  27:.\Generated_Source\PSoC4/ADC_INT.c **** /* `#START ADC_SYS_VAR`  */
  28:.\Generated_Source\PSoC4/ADC_INT.c **** #include <my_defines.h>
  29:.\Generated_Source\PSoC4/ADC_INT.c **** extern int16 result[num_of_channels];
  30:.\Generated_Source\PSoC4/ADC_INT.c **** extern uint8 data_ready;
  31:.\Generated_Source\PSoC4/ADC_INT.c **** 
  32:.\Generated_Source\PSoC4/ADC_INT.c **** /* `#END`  */
ARM GAS  C:\Users\LINETT~1\AppData\Local\Temp\ccFWOaIz.s 			page 2


  33:.\Generated_Source\PSoC4/ADC_INT.c **** 
  34:.\Generated_Source\PSoC4/ADC_INT.c **** #if(ADC_IRQ_REMOVE == 0u)
  35:.\Generated_Source\PSoC4/ADC_INT.c **** 
  36:.\Generated_Source\PSoC4/ADC_INT.c **** 
  37:.\Generated_Source\PSoC4/ADC_INT.c ****     /******************************************************************************
  38:.\Generated_Source\PSoC4/ADC_INT.c ****     * Function Name: ADC_ISR
  39:.\Generated_Source\PSoC4/ADC_INT.c ****     *******************************************************************************
  40:.\Generated_Source\PSoC4/ADC_INT.c ****     *
  41:.\Generated_Source\PSoC4/ADC_INT.c ****     * Summary:
  42:.\Generated_Source\PSoC4/ADC_INT.c ****     *  Handle Interrupt Service Routine.
  43:.\Generated_Source\PSoC4/ADC_INT.c ****     *
  44:.\Generated_Source\PSoC4/ADC_INT.c ****     * Parameters:
  45:.\Generated_Source\PSoC4/ADC_INT.c ****     *  None.
  46:.\Generated_Source\PSoC4/ADC_INT.c ****     *
  47:.\Generated_Source\PSoC4/ADC_INT.c ****     * Return:
  48:.\Generated_Source\PSoC4/ADC_INT.c ****     *  None.
  49:.\Generated_Source\PSoC4/ADC_INT.c ****     *
  50:.\Generated_Source\PSoC4/ADC_INT.c ****     * Reentrant:
  51:.\Generated_Source\PSoC4/ADC_INT.c ****     *  No.
  52:.\Generated_Source\PSoC4/ADC_INT.c ****     *
  53:.\Generated_Source\PSoC4/ADC_INT.c ****     ******************************************************************************/
  54:.\Generated_Source\PSoC4/ADC_INT.c ****     CY_ISR( ADC_ISR )
  55:.\Generated_Source\PSoC4/ADC_INT.c ****     {
  26              		.loc 1 55 0
  27              		.cfi_startproc
  28 0000 80B5     		push	{r7, lr}
  29              		.cfi_def_cfa_offset 8
  30              		.cfi_offset 7, -8
  31              		.cfi_offset 14, -4
  32 0002 82B0     		sub	sp, sp, #8
  33              		.cfi_def_cfa_offset 16
  34 0004 00AF     		add	r7, sp, #0
  35              		.cfi_def_cfa_register 7
  56:.\Generated_Source\PSoC4/ADC_INT.c ****         uint32 intr_status;
  57:.\Generated_Source\PSoC4/ADC_INT.c **** 
  58:.\Generated_Source\PSoC4/ADC_INT.c ****         /* Read interrupt status register */
  59:.\Generated_Source\PSoC4/ADC_INT.c ****         intr_status = ADC_SAR_INTR_REG;
  36              		.loc 1 59 0
  37 0006 0F4B     		ldr	r3, .L4
  38 0008 1B68     		ldr	r3, [r3]
  39 000a 3B60     		str	r3, [r7]
  60:.\Generated_Source\PSoC4/ADC_INT.c **** 
  61:.\Generated_Source\PSoC4/ADC_INT.c ****         #ifdef ADC_ISR_INTERRUPT_CALLBACK
  62:.\Generated_Source\PSoC4/ADC_INT.c ****             ADC_ISR_InterruptCallback();
  63:.\Generated_Source\PSoC4/ADC_INT.c ****         #endif /* ADC_ISR_INTERRUPT_CALLBACK */
  64:.\Generated_Source\PSoC4/ADC_INT.c **** 
  65:.\Generated_Source\PSoC4/ADC_INT.c **** 
  66:.\Generated_Source\PSoC4/ADC_INT.c ****         /************************************************************************
  67:.\Generated_Source\PSoC4/ADC_INT.c ****         *  Custom Code
  68:.\Generated_Source\PSoC4/ADC_INT.c ****         *  - add user ISR code between the following #START and #END tags
  69:.\Generated_Source\PSoC4/ADC_INT.c ****         *************************************************************************/
  70:.\Generated_Source\PSoC4/ADC_INT.c ****         /* `#START MAIN_ADC_ISR`  */
  71:.\Generated_Source\PSoC4/ADC_INT.c ****         int i;
  72:.\Generated_Source\PSoC4/ADC_INT.c ****         for(i=0; i<num_of_channels;i++)
  40              		.loc 1 72 0
  41 000c 0023     		mov	r3, #0
  42 000e 7B60     		str	r3, [r7, #4]
ARM GAS  C:\Users\LINETT~1\AppData\Local\Temp\ccFWOaIz.s 			page 3


  43 0010 0CE0     		b	.L2
  44              	.L3:
  73:.\Generated_Source\PSoC4/ADC_INT.c ****         {
  74:.\Generated_Source\PSoC4/ADC_INT.c ****             result[i] = ADC_GetResult16(i);
  45              		.loc 1 74 0 discriminator 3
  46 0012 7B68     		ldr	r3, [r7, #4]
  47 0014 181C     		mov	r0, r3
  48 0016 FFF7FEFF 		bl	ADC_GetResult16
  49 001a 031C     		mov	r3, r0
  50 001c 191C     		mov	r1, r3
  51 001e 0A4B     		ldr	r3, .L4+4
  52 0020 7A68     		ldr	r2, [r7, #4]
  53 0022 5200     		lsl	r2, r2, #1
  54 0024 D152     		strh	r1, [r2, r3]
  72:.\Generated_Source\PSoC4/ADC_INT.c ****         {
  55              		.loc 1 72 0 discriminator 3
  56 0026 7B68     		ldr	r3, [r7, #4]
  57 0028 0133     		add	r3, r3, #1
  58 002a 7B60     		str	r3, [r7, #4]
  59              	.L2:
  72:.\Generated_Source\PSoC4/ADC_INT.c ****         {
  60              		.loc 1 72 0 is_stmt 0 discriminator 1
  61 002c 7B68     		ldr	r3, [r7, #4]
  62 002e 022B     		cmp	r3, #2
  63 0030 EFDD     		ble	.L3
  75:.\Generated_Source\PSoC4/ADC_INT.c ****         }
  76:.\Generated_Source\PSoC4/ADC_INT.c ****         data_ready = TRUE;
  64              		.loc 1 76 0 is_stmt 1
  65 0032 064B     		ldr	r3, .L4+8
  66 0034 0122     		mov	r2, #1
  67 0036 1A70     		strb	r2, [r3]
  77:.\Generated_Source\PSoC4/ADC_INT.c ****         /* `#END`  */
  78:.\Generated_Source\PSoC4/ADC_INT.c ****         
  79:.\Generated_Source\PSoC4/ADC_INT.c ****         /* Clear handled interrupt */
  80:.\Generated_Source\PSoC4/ADC_INT.c ****         ADC_SAR_INTR_REG = intr_status;
  68              		.loc 1 80 0
  69 0038 024B     		ldr	r3, .L4
  70 003a 3A68     		ldr	r2, [r7]
  71 003c 1A60     		str	r2, [r3]
  81:.\Generated_Source\PSoC4/ADC_INT.c ****     }
  72              		.loc 1 81 0
  73 003e BD46     		mov	sp, r7
  74 0040 02B0     		add	sp, sp, #8
  75              		@ sp needed
  76 0042 80BD     		pop	{r7, pc}
  77              	.L5:
  78              		.align	2
  79              	.L4:
  80 0044 10023A40 		.word	1077543440
  81 0048 00000000 		.word	result
  82 004c 00000000 		.word	data_ready
  83              		.cfi_endproc
  84              	.LFE37:
  85              		.size	ADC_ISR, .-ADC_ISR
  86              		.text
  87              	.Letext0:
  88              		.file 2 ".\\Generated_Source\\PSoC4\\cytypes.h"
ARM GAS  C:\Users\LINETT~1\AppData\Local\Temp\ccFWOaIz.s 			page 4

