ARM GAS  C:\Users\passw\AppData\Local\Temp\ccvxn8FP.s 			page 1


   1              		.cpu cortex-m0
   2              		.fpu softvfp
   3              		.eabi_attribute 20, 1
   4              		.eabi_attribute 21, 1
   5              		.eabi_attribute 23, 3
   6              		.eabi_attribute 24, 1
   7              		.eabi_attribute 25, 1
   8              		.eabi_attribute 26, 1
   9              		.eabi_attribute 30, 1
  10              		.eabi_attribute 34, 0
  11              		.eabi_attribute 18, 4
  12              		.code	16
  13              		.file	"main.c"
  14              		.text
  15              	.Ltext0:
  16              		.cfi_sections	.debug_frame
  17              		.section	.text.RX_interrupt,"ax",%progbits
  18              		.align	2
  19              		.global	RX_interrupt
  20              		.code	16
  21              		.thumb_func
  22              		.type	RX_interrupt, %function
  23              	RX_interrupt:
  24              	.LFB36:
  25              		.file 1 ".\\main.c"
   1:.\main.c      **** /* ========================================
   2:.\main.c      ****  *
   3:.\main.c      ****  * UART echo with interrupt
   4:.\main.c      ****  *
   5:.\main.c      ****  * ========================================
   6:.\main.c      **** */
   7:.\main.c      **** #include <project.h>
   8:.\main.c      **** 
   9:.\main.c      **** CY_ISR(RX_interrupt)
  10:.\main.c      **** {
  26              		.loc 1 10 0
  27              		.cfi_startproc
  28 0000 08B5     		push	{r3, lr}
  29              		.cfi_def_cfa_offset 8
  30              		.cfi_offset 3, -8
  31              		.cfi_offset 14, -4
  11:.\main.c      ****     uint8 ch = UART_UartGetChar();
  32              		.loc 1 11 0
  33 0002 FFF7FEFF 		bl	UART_UartGetChar
  34              	.LVL0:
  12:.\main.c      ****     UART_ClearRxInterruptSource(UART_GetRxInterruptSource());
  35              		.loc 1 12 0
  36 0006 074B     		ldr	r3, .L2
  37 0008 1A68     		ldr	r2, [r3]
  38 000a 1A60     		str	r2, [r3]
  13:.\main.c      ****     
  14:.\main.c      ****     /* her kan vi kode!!!!!!!!!!!!!!! */
  15:.\main.c      ****      
  16:.\main.c      ****     UART_BLE_UartPutChar(ch);
  39              		.loc 1 16 0
  40 000c FF23     		mov	r3, #255
  41 000e 1840     		and	r0, r3
ARM GAS  C:\Users\passw\AppData\Local\Temp\ccvxn8FP.s 			page 2


  42              	.LVL1:
  43 0010 FFF7FEFF 		bl	UART_BLE_SpiUartWriteTxData
  44              	.LVL2:
  17:.\main.c      ****     BLUE_LED_Write(~BLUE_LED_Read());
  45              		.loc 1 17 0
  46 0014 FFF7FEFF 		bl	BLUE_LED_Read
  47              	.LVL3:
  48 0018 C043     		mvn	r0, r0
  49 001a C0B2     		uxtb	r0, r0
  50 001c FFF7FEFF 		bl	BLUE_LED_Write
  51              	.LVL4:
  18:.\main.c      **** }
  52              		.loc 1 18 0
  53              		@ sp needed
  54 0020 08BD     		pop	{r3, pc}
  55              	.L3:
  56 0022 C046     		.align	2
  57              	.L2:
  58 0024 C00F2740 		.word	1076301760
  59              		.cfi_endproc
  60              	.LFE36:
  61              		.size	RX_interrupt, .-RX_interrupt
  62              		.section	.text.BLE_RX_interrupt,"ax",%progbits
  63              		.align	2
  64              		.global	BLE_RX_interrupt
  65              		.code	16
  66              		.thumb_func
  67              		.type	BLE_RX_interrupt, %function
  68              	BLE_RX_interrupt:
  69              	.LFB37:
  19:.\main.c      **** 
  20:.\main.c      **** CY_ISR(BLE_RX_interrupt)
  21:.\main.c      **** {
  70              		.loc 1 21 0
  71              		.cfi_startproc
  72 0000 08B5     		push	{r3, lr}
  73              		.cfi_def_cfa_offset 8
  74              		.cfi_offset 3, -8
  75              		.cfi_offset 14, -4
  22:.\main.c      ****     uint8 ch = UART_BLE_UartGetChar();
  76              		.loc 1 22 0
  77 0002 FFF7FEFF 		bl	UART_BLE_UartGetChar
  78              	.LVL5:
  23:.\main.c      ****     UART_BLE_ClearRxInterruptSource(UART_BLE_GetRxInterruptSource());
  79              		.loc 1 23 0
  80 0006 044B     		ldr	r3, .L5
  81 0008 1A68     		ldr	r2, [r3]
  82 000a 1A60     		str	r2, [r3]
  24:.\main.c      ****     
  25:.\main.c      ****     
  26:.\main.c      ****     UART_UartPutChar(ch);
  83              		.loc 1 26 0
  84 000c FF23     		mov	r3, #255
  85 000e 1840     		and	r0, r3
  86              	.LVL6:
  87 0010 FFF7FEFF 		bl	UART_SpiUartWriteTxData
  88              	.LVL7:
ARM GAS  C:\Users\passw\AppData\Local\Temp\ccvxn8FP.s 			page 3


  27:.\main.c      **** }
  89              		.loc 1 27 0
  90              		@ sp needed
  91 0014 08BD     		pop	{r3, pc}
  92              	.L6:
  93 0016 C046     		.align	2
  94              	.L5:
  95 0018 C00F2540 		.word	1076170688
  96              		.cfi_endproc
  97              	.LFE37:
  98              		.size	BLE_RX_interrupt, .-BLE_RX_interrupt
  99              		.section	.text.main,"ax",%progbits
 100              		.align	2
 101              		.global	main
 102              		.code	16
 103              		.thumb_func
 104              		.type	main, %function
 105              	main:
 106              	.LFB38:
  28:.\main.c      **** 
  29:.\main.c      **** int main()
  30:.\main.c      **** {
 107              		.loc 1 30 0
 108              		.cfi_startproc
 109 0000 08B5     		push	{r3, lr}
 110              		.cfi_def_cfa_offset 8
 111              		.cfi_offset 3, -8
 112              		.cfi_offset 14, -4
  31:.\main.c      ****     CyGlobalIntEnable;                  /* Enable global interrupts */
 113              		.loc 1 31 0
 114              	@ 31 ".\main.c" 1
 115 0002 62B6     		CPSIE   i
 116              	@ 0 "" 2
  32:.\main.c      ****     UART_RX_ISR_StartEx(RX_interrupt);  /* Set interrupt address */
 117              		.loc 1 32 0
 118              		.code	16
 119 0004 0648     		ldr	r0, .L8
 120 0006 FFF7FEFF 		bl	UART_RX_ISR_StartEx
 121              	.LVL8:
  33:.\main.c      ****     UART_BLE_RX_ISR_StartEx(BLE_RX_interrupt);  /* Set interrupt address */
 122              		.loc 1 33 0
 123 000a 0648     		ldr	r0, .L8+4
 124 000c FFF7FEFF 		bl	UART_BLE_RX_ISR_StartEx
 125              	.LVL9:
  34:.\main.c      ****     UART_Start();                       /* Start UART */
 126              		.loc 1 34 0
 127 0010 FFF7FEFF 		bl	UART_Start
 128              	.LVL10:
  35:.\main.c      ****     UART_BLE_Start();                       /* Start UART */
 129              		.loc 1 35 0
 130 0014 FFF7FEFF 		bl	UART_BLE_Start
 131              	.LVL11:
  36:.\main.c      ****     CySysPmSleep();                     /* Enter Sleep mode */
 132              		.loc 1 36 0
 133 0018 FFF7FEFF 		bl	CySysPmSleep
 134              	.LVL12:
  37:.\main.c      ****     return 0;
ARM GAS  C:\Users\passw\AppData\Local\Temp\ccvxn8FP.s 			page 4


  38:.\main.c      **** }
 135              		.loc 1 38 0
 136 001c 0020     		mov	r0, #0
 137              		@ sp needed
 138 001e 08BD     		pop	{r3, pc}
 139              	.L9:
 140              		.align	2
 141              	.L8:
 142 0020 00000000 		.word	RX_interrupt
 143 0024 00000000 		.word	BLE_RX_interrupt
 144              		.cfi_endproc
 145              	.LFE38:
 146              		.size	main, .-main
 147              		.text
 148              	.Letext0:
 149              		.file 2 "Generated_Source\\PSoC4/cytypes.h"
 150              		.file 3 "Generated_Source\\PSoC4/UART_SPI_UART.h"
 151              		.file 4 "Generated_Source\\PSoC4/BLUE_LED.h"
 152              		.file 5 "Generated_Source\\PSoC4/UART_BLE_SPI_UART.h"
 153              		.file 6 "Generated_Source\\PSoC4/UART_RX_ISR.h"
 154              		.file 7 "Generated_Source\\PSoC4/UART_BLE_RX_ISR.h"
 155              		.file 8 "Generated_Source\\PSoC4/UART.h"
 156              		.file 9 "Generated_Source\\PSoC4/UART_BLE.h"
 157              		.file 10 "Generated_Source\\PSoC4/cyPm.h"