ARM GAS  C:\Users\passw\AppData\Local\Temp\ccbXYnhS.s 			page 1


   1              		.cpu cortex-m0
   2              		.fpu softvfp
   3              		.eabi_attribute 20, 1
   4              		.eabi_attribute 21, 1
   5              		.eabi_attribute 23, 3
   6              		.eabi_attribute 24, 1
   7              		.eabi_attribute 25, 1
   8              		.eabi_attribute 26, 1
   9              		.eabi_attribute 30, 1
  10              		.eabi_attribute 34, 0
  11              		.eabi_attribute 18, 4
  12              		.code	16
  13              		.file	"main.c"
  14              		.text
  15              	.Ltext0:
  16              		.cfi_sections	.debug_frame
  17              		.section	.text.BLE_RX_interrupt,"ax",%progbits
  18              		.align	2
  19              		.global	BLE_RX_interrupt
  20              		.code	16
  21              		.thumb_func
  22              		.type	BLE_RX_interrupt, %function
  23              	BLE_RX_interrupt:
  24              	.LFB40:
  25              		.file 1 ".\\main.c"
   1:.\main.c      **** /* ========================================
   2:.\main.c      ****  *
   3:.\main.c      ****  * UART echo with interrupt
   4:.\main.c      ****  *
   5:.\main.c      ****  * ========================================
   6:.\main.c      **** */
   7:.\main.c      **** #include <project.h>
   8:.\main.c      **** #include <stdlib.h>
   9:.\main.c      **** #define LOWBYTE 0                                   // Used to toggle between HIGH byte and LOW byt
  10:.\main.c      **** #define HIGHBYTE 1                                  // Used to toggle between HIGH byte and LOW byt
  11:.\main.c      **** #define FALSE 0
  12:.\main.c      **** #define TRUE 1
  13:.\main.c      **** #define LENGTH 5
  14:.\main.c      **** 
  15:.\main.c      **** #define ARRAY_SIZE 3
  16:.\main.c      **** //#define FILTER_LENGTH_mavg 19
  17:.\main.c      **** 
  18:.\main.c      **** 
  19:.\main.c      **** 
  20:.\main.c      **** #define StartMeasuring Measure_When_Low_Write(0);   // Used to start the Timer
  21:.\main.c      **** #define StopMeasuring Measure_When_Low_Write(1);    // Used to stop the Timer and capture the time 
  22:.\main.c      **** 
  23:.\main.c      **** int y[2] = {0,0};
  24:.\main.c      **** 
  25:.\main.c      **** //double x_mavg[FILTER_LENGTH_mavg+1] = {0,0,0,0,0,0,0,0,0,0,0,0,0,0,0,0,0,0,0,0};
  26:.\main.c      **** //double y_mavg = 0;
  27:.\main.c      **** //double b_mavg[FILTER_LENGTH_mavg+1] = {0.05,0.05,0.05,0.05,0.05,0.05,0.05,0.05,0.05,0.05,0.05,0.0
  28:.\main.c      **** #define FILTER_LENGTH_mavg 9
  29:.\main.c      **** //int y[2] = {0,0};
  30:.\main.c      **** double x_mavg[FILTER_LENGTH_mavg+1] = {0,0,0,0,0,0,0,0,0,0};
  31:.\main.c      **** double y_mavg = 0;
  32:.\main.c      **** double b_mavg[FILTER_LENGTH_mavg+1] = {0.1,0.1,0.1,0.1,0.1,0.1,0.1,0.1,0.1,0.1};
ARM GAS  C:\Users\passw\AppData\Local\Temp\ccbXYnhS.s 			page 2


  33:.\main.c      **** 
  34:.\main.c      **** 
  35:.\main.c      **** //double x_low[FILTER_LENGTH_low+1] = {0, 0, 0};
  36:.\main.c      **** //double y_low[FILTER_LENGTH_low+1] = {0, 0, 0};
  37:.\main.c      **** //double b_low[FILTER_LENGTH_low+1] = {0.0201, 0.0402, 0.0201};
  38:.\main.c      **** //double a_low[FILTER_LENGTH_low+1] = {1.0000, -1.5610, 0.6414};
  39:.\main.c      **** 
  40:.\main.c      **** #define FILTER_LENGTH_low 2
  41:.\main.c      **** double x_low[FILTER_LENGTH_low+1] = {0, 0, 0};
  42:.\main.c      **** double y_low[FILTER_LENGTH_low+1] = {0, 0, 0};
  43:.\main.c      **** double b_low[FILTER_LENGTH_low+1] = {0.0015, 0.0029, 0.0015};
  44:.\main.c      **** double a_low[FILTER_LENGTH_low+1] = {1.0000, -1.8890, 0.8949};
  45:.\main.c      **** 
  46:.\main.c      **** char current_byte = LOWBYTE;                        // Receive LOW byte first as default
  47:.\main.c      **** int16 value_in,value_out[2]={0,0},i=0,j=0,oldest,newest,diff,signed_data,old, low_pass_new, avg_new
  48:.\main.c      **** uint16 counter = 0, pointer, unsigned_data;  
  49:.\main.c      **** char FirstCall = TRUE;
  50:.\main.c      **** 
  51:.\main.c      **** signed int floor_and_convert(double y)
  52:.\main.c      **** {
  53:.\main.c      ****    if (y > 0)
  54:.\main.c      ****       return (signed int) (y+0.5);
  55:.\main.c      ****    else
  56:.\main.c      ****       return (signed int) (y-0.5);
  57:.\main.c      **** }
  58:.\main.c      **** 
  59:.\main.c      **** int low_pass_filter(int data)
  60:.\main.c      **** {
  61:.\main.c      ****    int i;
  62:.\main.c      ****    x_low[0] =  (double) data;
  63:.\main.c      ****    
  64:.\main.c      ****    y_low[0] = 0;
  65:.\main.c      ****   
  66:.\main.c      ****    for(i = 0;i <= FILTER_LENGTH_low;i++)                 // Run IIR filter for each received sample
  67:.\main.c      ****    {
  68:.\main.c      ****       y_low[0] += b_low[i]*x_low[i];
  69:.\main.c      ****    } 
  70:.\main.c      ****    
  71:.\main.c      ****    for(i =1;i <= FILTER_LENGTH_low;i++)               // Roll x array in order to hold old sample i
  72:.\main.c      ****    {
  73:.\main.c      ****       y_low[0] -= a_low[i]*y_low[i];
  74:.\main.c      ****    }
  75:.\main.c      **** 
  76:.\main.c      ****    for(i = FILTER_LENGTH_low-1;i >= 0;i--)
  77:.\main.c      ****     {
  78:.\main.c      ****        x_low[i+1]=x_low[i];
  79:.\main.c      ****        y_low[i+1]=y_low[i];
  80:.\main.c      ****     }
  81:.\main.c      **** 
  82:.\main.c      ****     return floor_and_convert(y_low[0]);
  83:.\main.c      **** }
  84:.\main.c      **** 
  85:.\main.c      **** signed int mavg_filter(signed int data)
  86:.\main.c      **** {
  87:.\main.c      ****    x_mavg[0] =  (double) data;      // Read received sample and perform type casts
  88:.\main.c      ****    
  89:.\main.c      ****    y_mavg = 0;
ARM GAS  C:\Users\passw\AppData\Local\Temp\ccbXYnhS.s 			page 3


  90:.\main.c      ****    for(i = 0;i <= FILTER_LENGTH_mavg;i++)           // Run FIR filter for each received sample
  91:.\main.c      ****    {
  92:.\main.c      ****       y_mavg += b_mavg[i]*x_mavg[i];
  93:.\main.c      ****    } 
  94:.\main.c      ****    
  95:.\main.c      ****    for(i = FILTER_LENGTH_mavg-1;i >= 0;i--)         // Roll x array in order to hold old sample inp
  96:.\main.c      ****    {
  97:.\main.c      ****       x_mavg[i+1] = x_mavg[i];
  98:.\main.c      ****    }
  99:.\main.c      ****       
 100:.\main.c      ****    return (unsigned int) y_mavg;                    // Perform type casts and return sample
 101:.\main.c      **** }
 102:.\main.c      **** 
 103:.\main.c      **** CY_ISR(RX_interrupt)
 104:.\main.c      **** {
 105:.\main.c      ****     char str[4];
 106:.\main.c      ****     uint8 ch = UART_UartGetChar();
 107:.\main.c      ****     UART_ClearRxInterruptSource(UART_GetRxInterruptSource());
 108:.\main.c      ****     
 109:.\main.c      ****     if(current_byte == LOWBYTE)                     // Receive LOW byte first
 110:.\main.c      ****     {
 111:.\main.c      ****         
 112:.\main.c      ****         
 113:.\main.c      ****         value_in = ch;                                 // Save UCA0RXBUF in the LOW byte of "value"
 114:.\main.c      ****         current_byte = HIGHBYTE;                    // Prepare to receive HIGH byte on next interru
 115:.\main.c      ****         return;                                     // Return from interrupt
 116:.\main.c      ****     }
 117:.\main.c      ****     
 118:.\main.c      ****     if(current_byte == HIGHBYTE)                    // Recieve HIGH byte
 119:.\main.c      ****     {
 120:.\main.c      ****         value_in += (ch<<8);                           // Save UCA0RXBUF in the HIGH byte of "value
 121:.\main.c      ****         current_byte = LOWBYTE;                     // Prepare to receive LOW byte on next interrup
 122:.\main.c      ****                 
 123:.\main.c      ****         StartMeasuring
 124:.\main.c      ****             value_out[1] = value_out[0];
 125:.\main.c      ****             //low_pass_new = low_pass_filter(value_in);
 126:.\main.c      ****             //value_out[0] = low_pass_new;                     // Value_in for at genskabe signalet
 127:.\main.c      ****             avg_new = mavg_filter(value_in);   
 128:.\main.c      ****             value_out[0] = avg_new; 
 129:.\main.c      ****         
 130:.\main.c      ****         StopMeasuring
 131:.\main.c      ****         
 132:.\main.c      ****         
 133:.\main.c      ****         if ((value_out[0] >= 225) && (value_out[1] < 225))      // Applay simple thresholding
 134:.\main.c      ****         {
 135:.\main.c      ****             j = j + 1;
 136:.\main.c      ****             UART_BLE_UartPutString(itoa(j,str,10));             // Notify BLE_Peripheral
 137:.\main.c      ****             UART_BLE_UartPutChar(10);    
 138:.\main.c      ****             UART_BLE_UartPutChar(13);  
 139:.\main.c      ****         }
 140:.\main.c      ****        
 141:.\main.c      ****        
 142:.\main.c      ****           //UART_UartPutChar(avg_new);
 143:.\main.c      ****           //UART_UartPutChar(avg_new>>8);
 144:.\main.c      ****       
 145:.\main.c      ****         UART_UartPutChar(avg_new);
 146:.\main.c      ****         UART_UartPutChar(avg_new>>8); 
ARM GAS  C:\Users\passw\AppData\Local\Temp\ccbXYnhS.s 			page 4


 147:.\main.c      ****     }
 148:.\main.c      **** }
 149:.\main.c      **** 
 150:.\main.c      **** CY_ISR(BLE_RX_interrupt)
 151:.\main.c      **** {
  26              		.loc 1 151 0
  27              		.cfi_startproc
  28 0000 08B5     		push	{r3, lr}
  29              		.cfi_def_cfa_offset 8
  30              		.cfi_offset 3, -8
  31              		.cfi_offset 14, -4
 152:.\main.c      ****     uint8 ch = UART_BLE_UartGetChar();
  32              		.loc 1 152 0
  33 0002 FFF7FEFF 		bl	UART_BLE_UartGetChar
  34              	.LVL0:
 153:.\main.c      ****     UART_BLE_ClearRxInterruptSource(UART_BLE_GetRxInterruptSource());
  35              		.loc 1 153 0
  36 0006 044B     		ldr	r3, .L2
  37 0008 1A68     		ldr	r2, [r3]
  38 000a 1A60     		str	r2, [r3]
 154:.\main.c      ****     UART_UartPutChar(ch);
  39              		.loc 1 154 0
  40 000c FF23     		mov	r3, #255
  41 000e 1840     		and	r0, r3
  42              	.LVL1:
  43 0010 FFF7FEFF 		bl	UART_SpiUartWriteTxData
  44              	.LVL2:
 155:.\main.c      **** }
  45              		.loc 1 155 0
  46              		@ sp needed
  47 0014 08BD     		pop	{r3, pc}
  48              	.L3:
  49 0016 C046     		.align	2
  50              	.L2:
  51 0018 C00F2540 		.word	1076170688
  52              		.cfi_endproc
  53              	.LFE40:
  54              		.size	BLE_RX_interrupt, .-BLE_RX_interrupt
  55              		.section	.text.Timer_interrupt,"ax",%progbits
  56              		.align	2
  57              		.global	Timer_interrupt
  58              		.code	16
  59              		.thumb_func
  60              		.type	Timer_interrupt, %function
  61              	Timer_interrupt:
  62              	.LFB41:
 156:.\main.c      **** 
 157:.\main.c      **** CY_ISR(Timer_interrupt)
 158:.\main.c      **** {
  63              		.loc 1 158 0
  64              		.cfi_startproc
  65 0000 08B5     		push	{r3, lr}
  66              		.cfi_def_cfa_offset 8
  67              		.cfi_offset 3, -8
  68              		.cfi_offset 14, -4
 159:.\main.c      ****     counter = Timer_ReadCapture();   
  69              		.loc 1 159 0
ARM GAS  C:\Users\passw\AppData\Local\Temp\ccbXYnhS.s 			page 5


  70 0002 FFF7FEFF 		bl	Timer_ReadCapture
  71              	.LVL3:
  72 0006 014B     		ldr	r3, .L5
  73 0008 1880     		strh	r0, [r3]
 160:.\main.c      **** }
  74              		.loc 1 160 0
  75              		@ sp needed
  76 000a 08BD     		pop	{r3, pc}
  77              	.L6:
  78              		.align	2
  79              	.L5:
  80 000c 00000000 		.word	.LANCHOR0
  81              		.cfi_endproc
  82              	.LFE41:
  83              		.size	Timer_interrupt, .-Timer_interrupt
  84              		.global	__aeabi_dcmpgt
  85              		.global	__aeabi_dadd
  86              		.global	__aeabi_d2iz
  87              		.global	__aeabi_dsub
  88              		.section	.text.floor_and_convert,"ax",%progbits
  89              		.align	2
  90              		.global	floor_and_convert
  91              		.code	16
  92              		.thumb_func
  93              		.type	floor_and_convert, %function
  94              	floor_and_convert:
  95              	.LFB36:
  52:.\main.c      ****    if (y > 0)
  96              		.loc 1 52 0
  97              		.cfi_startproc
  98              	.LVL4:
  99 0000 38B5     		push	{r3, r4, r5, lr}
 100              		.cfi_def_cfa_offset 16
 101              		.cfi_offset 3, -16
 102              		.cfi_offset 4, -12
 103              		.cfi_offset 5, -8
 104              		.cfi_offset 14, -4
 105 0002 041C     		mov	r4, r0
 106 0004 0D1C     		mov	r5, r1
  53:.\main.c      ****       return (signed int) (y+0.5);
 107              		.loc 1 53 0
 108 0006 0022     		mov	r2, #0
 109 0008 0023     		mov	r3, #0
 110 000a FFF7FEFF 		bl	__aeabi_dcmpgt
 111              	.LVL5:
 112 000e 0028     		cmp	r0, #0
 113 0010 08D0     		beq	.L12
  54:.\main.c      ****    else
 114              		.loc 1 54 0
 115 0012 201C     		mov	r0, r4
 116 0014 291C     		mov	r1, r5
 117 0016 0022     		mov	r2, #0
 118 0018 074B     		ldr	r3, .L13
 119 001a FFF7FEFF 		bl	__aeabi_dadd
 120              	.LVL6:
 121 001e FFF7FEFF 		bl	__aeabi_d2iz
 122              	.LVL7:
ARM GAS  C:\Users\passw\AppData\Local\Temp\ccbXYnhS.s 			page 6


 123 0022 07E0     		b	.L10
 124              	.L12:
  56:.\main.c      **** }
 125              		.loc 1 56 0
 126 0024 201C     		mov	r0, r4
 127 0026 291C     		mov	r1, r5
 128 0028 0022     		mov	r2, #0
 129 002a 034B     		ldr	r3, .L13
 130 002c FFF7FEFF 		bl	__aeabi_dsub
 131              	.LVL8:
 132 0030 FFF7FEFF 		bl	__aeabi_d2iz
 133              	.LVL9:
 134              	.L10:
  57:.\main.c      **** 
 135              		.loc 1 57 0
 136              		@ sp needed
 137 0034 38BD     		pop	{r3, r4, r5, pc}
 138              	.L14:
 139 0036 C046     		.align	2
 140              	.L13:
 141 0038 0000E03F 		.word	1071644672
 142              		.cfi_endproc
 143              	.LFE36:
 144              		.size	floor_and_convert, .-floor_and_convert
 145              		.global	__aeabi_i2d
 146              		.global	__aeabi_dmul
 147              		.section	.text.low_pass_filter,"ax",%progbits
 148              		.align	2
 149              		.global	low_pass_filter
 150              		.code	16
 151              		.thumb_func
 152              		.type	low_pass_filter, %function
 153              	low_pass_filter:
 154              	.LFB37:
  60:.\main.c      ****    int i;
 155              		.loc 1 60 0
 156              		.cfi_startproc
 157              	.LVL10:
 158 0000 38B5     		push	{r3, r4, r5, lr}
 159              		.cfi_def_cfa_offset 16
 160              		.cfi_offset 3, -16
 161              		.cfi_offset 4, -12
 162              		.cfi_offset 5, -8
 163              		.cfi_offset 14, -4
  62:.\main.c      ****    
 164              		.loc 1 62 0
 165 0002 FFF7FEFF 		bl	__aeabi_i2d
 166              	.LVL11:
 167 0006 284B     		ldr	r3, .L22
 168 0008 9860     		str	r0, [r3, #8]
 169 000a D960     		str	r1, [r3, #12]
  64:.\main.c      ****   
 170              		.loc 1 64 0
 171 000c 0020     		mov	r0, #0
 172 000e 0021     		mov	r1, #0
 173 0010 1862     		str	r0, [r3, #32]
 174 0012 5962     		str	r1, [r3, #36]
ARM GAS  C:\Users\passw\AppData\Local\Temp\ccbXYnhS.s 			page 7


 175              	.LVL12:
  66:.\main.c      ****    {
 176              		.loc 1 66 0
 177 0014 0024     		mov	r4, #0
 178 0016 13E0     		b	.L16
 179              	.LVL13:
 180              	.L17:
  68:.\main.c      ****    } 
 181              		.loc 1 68 0 discriminator 3
 182 0018 E300     		lsl	r3, r4, #3
 183 001a 244A     		ldr	r2, .L22+4
 184 001c D218     		add	r2, r2, r3
 185 001e 1068     		ldr	r0, [r2]
 186 0020 5168     		ldr	r1, [r2, #4]
 187 0022 214D     		ldr	r5, .L22
 188 0024 EB18     		add	r3, r5, r3
 189 0026 9A68     		ldr	r2, [r3, #8]
 190 0028 DB68     		ldr	r3, [r3, #12]
 191 002a FFF7FEFF 		bl	__aeabi_dmul
 192              	.LVL14:
 193 002e 021C     		mov	r2, r0
 194 0030 0B1C     		mov	r3, r1
 195 0032 286A     		ldr	r0, [r5, #32]
 196 0034 696A     		ldr	r1, [r5, #36]
 197 0036 FFF7FEFF 		bl	__aeabi_dadd
 198              	.LVL15:
 199 003a 2862     		str	r0, [r5, #32]
 200 003c 6962     		str	r1, [r5, #36]
  66:.\main.c      ****    {
 201              		.loc 1 66 0 discriminator 3
 202 003e 0134     		add	r4, r4, #1
 203              	.LVL16:
 204              	.L16:
  66:.\main.c      ****    {
 205              		.loc 1 66 0 is_stmt 0 discriminator 1
 206 0040 022C     		cmp	r4, #2
 207 0042 E9DD     		ble	.L17
 208 0044 0124     		mov	r4, #1
 209              	.LVL17:
 210 0046 13E0     		b	.L18
 211              	.LVL18:
 212              	.L19:
  73:.\main.c      ****    }
 213              		.loc 1 73 0 is_stmt 1 discriminator 3
 214 0048 E300     		lsl	r3, r4, #3
 215 004a 184A     		ldr	r2, .L22+4
 216 004c D218     		add	r2, r2, r3
 217 004e 9069     		ldr	r0, [r2, #24]
 218 0050 D169     		ldr	r1, [r2, #28]
 219 0052 154D     		ldr	r5, .L22
 220 0054 EB18     		add	r3, r5, r3
 221 0056 1A6A     		ldr	r2, [r3, #32]
 222 0058 5B6A     		ldr	r3, [r3, #36]
 223 005a FFF7FEFF 		bl	__aeabi_dmul
 224              	.LVL19:
 225 005e 021C     		mov	r2, r0
 226 0060 0B1C     		mov	r3, r1
ARM GAS  C:\Users\passw\AppData\Local\Temp\ccbXYnhS.s 			page 8


 227 0062 286A     		ldr	r0, [r5, #32]
 228 0064 696A     		ldr	r1, [r5, #36]
 229 0066 FFF7FEFF 		bl	__aeabi_dsub
 230              	.LVL20:
 231 006a 2862     		str	r0, [r5, #32]
 232 006c 6962     		str	r1, [r5, #36]
  71:.\main.c      ****    {
 233              		.loc 1 71 0 discriminator 3
 234 006e 0134     		add	r4, r4, #1
 235              	.LVL21:
 236              	.L18:
  71:.\main.c      ****    {
 237              		.loc 1 71 0 is_stmt 0 discriminator 1
 238 0070 022C     		cmp	r4, #2
 239 0072 E9DD     		ble	.L19
 240 0074 0122     		mov	r2, #1
 241 0076 0EE0     		b	.L20
 242              	.LVL22:
 243              	.L21:
  78:.\main.c      ****        y_low[i+1]=y_low[i];
 244              		.loc 1 78 0 is_stmt 1 discriminator 3
 245 0078 531C     		add	r3, r2, #1
 246 007a 0B48     		ldr	r0, .L22
 247 007c D100     		lsl	r1, r2, #3
 248 007e 4118     		add	r1, r0, r1
 249 0080 DB00     		lsl	r3, r3, #3
 250 0082 C318     		add	r3, r0, r3
 251 0084 8C68     		ldr	r4, [r1, #8]
 252 0086 CD68     		ldr	r5, [r1, #12]
 253 0088 9C60     		str	r4, [r3, #8]
 254 008a DD60     		str	r5, [r3, #12]
  79:.\main.c      ****     }
 255              		.loc 1 79 0 discriminator 3
 256 008c 086A     		ldr	r0, [r1, #32]
 257 008e 496A     		ldr	r1, [r1, #36]
 258 0090 1862     		str	r0, [r3, #32]
 259 0092 5962     		str	r1, [r3, #36]
  76:.\main.c      ****     {
 260              		.loc 1 76 0 discriminator 3
 261 0094 013A     		sub	r2, r2, #1
 262              	.LVL23:
 263              	.L20:
  76:.\main.c      ****     {
 264              		.loc 1 76 0 is_stmt 0 discriminator 1
 265 0096 002A     		cmp	r2, #0
 266 0098 EEDA     		bge	.L21
  82:.\main.c      **** }
 267              		.loc 1 82 0 is_stmt 1
 268 009a 034B     		ldr	r3, .L22
 269 009c 186A     		ldr	r0, [r3, #32]
 270 009e 596A     		ldr	r1, [r3, #36]
 271 00a0 FFF7FEFF 		bl	floor_and_convert
 272              	.LVL24:
  83:.\main.c      **** 
 273              		.loc 1 83 0
 274              		@ sp needed
 275 00a4 38BD     		pop	{r3, r4, r5, pc}
ARM GAS  C:\Users\passw\AppData\Local\Temp\ccbXYnhS.s 			page 9


 276              	.L23:
 277 00a6 C046     		.align	2
 278              	.L22:
 279 00a8 00000000 		.word	.LANCHOR0
 280 00ac 00000000 		.word	.LANCHOR1
 281              		.cfi_endproc
 282              	.LFE37:
 283              		.size	low_pass_filter, .-low_pass_filter
 284              		.global	__aeabi_d2uiz
 285              		.section	.text.mavg_filter,"ax",%progbits
 286              		.align	2
 287              		.global	mavg_filter
 288              		.code	16
 289              		.thumb_func
 290              		.type	mavg_filter, %function
 291              	mavg_filter:
 292              	.LFB38:
  86:.\main.c      ****    x_mavg[0] =  (double) data;      // Read received sample and perform type casts
 293              		.loc 1 86 0
 294              		.cfi_startproc
 295              	.LVL25:
 296 0000 38B5     		push	{r3, r4, r5, lr}
 297              		.cfi_def_cfa_offset 16
 298              		.cfi_offset 3, -16
 299              		.cfi_offset 4, -12
 300              		.cfi_offset 5, -8
 301              		.cfi_offset 14, -4
  87:.\main.c      ****    
 302              		.loc 1 87 0
 303 0002 FFF7FEFF 		bl	__aeabi_i2d
 304              	.LVL26:
 305 0006 214B     		ldr	r3, .L29
 306 0008 9863     		str	r0, [r3, #56]
 307 000a D963     		str	r1, [r3, #60]
  89:.\main.c      ****    for(i = 0;i <= FILTER_LENGTH_mavg;i++)           // Run FIR filter for each received sample
 308              		.loc 1 89 0
 309 000c 204B     		ldr	r3, .L29+4
 310 000e 0020     		mov	r0, #0
 311 0010 0021     		mov	r1, #0
 312 0012 9860     		str	r0, [r3, #8]
 313 0014 D960     		str	r1, [r3, #12]
  90:.\main.c      ****    {
 314              		.loc 1 90 0
 315 0016 0022     		mov	r2, #0
 316 0018 1A82     		strh	r2, [r3, #16]
 317 001a 14E0     		b	.L25
 318              	.L26:
  92:.\main.c      ****    } 
 319              		.loc 1 92 0 discriminator 3
 320 001c 23B2     		sxth	r3, r4
 321 001e DB00     		lsl	r3, r3, #3
 322 0020 1C4A     		ldr	r2, .L29+8
 323 0022 D218     		add	r2, r2, r3
 324 0024 106B     		ldr	r0, [r2, #48]
 325 0026 516B     		ldr	r1, [r2, #52]
 326 0028 184A     		ldr	r2, .L29
 327 002a D318     		add	r3, r2, r3
ARM GAS  C:\Users\passw\AppData\Local\Temp\ccbXYnhS.s 			page 10


 328 002c 9A6B     		ldr	r2, [r3, #56]
 329 002e DB6B     		ldr	r3, [r3, #60]
 330 0030 FFF7FEFF 		bl	__aeabi_dmul
 331              	.LVL27:
 332 0034 164D     		ldr	r5, .L29+4
 333 0036 AA68     		ldr	r2, [r5, #8]
 334 0038 EB68     		ldr	r3, [r5, #12]
 335 003a FFF7FEFF 		bl	__aeabi_dadd
 336              	.LVL28:
 337 003e A860     		str	r0, [r5, #8]
 338 0040 E960     		str	r1, [r5, #12]
  90:.\main.c      ****    {
 339              		.loc 1 90 0 discriminator 3
 340 0042 0134     		add	r4, r4, #1
 341 0044 2C82     		strh	r4, [r5, #16]
 342              	.L25:
  90:.\main.c      ****    {
 343              		.loc 1 90 0 is_stmt 0 discriminator 1
 344 0046 124B     		ldr	r3, .L29+4
 345 0048 1C8A     		ldrh	r4, [r3, #16]
 346 004a 23B2     		sxth	r3, r4
 347 004c 092B     		cmp	r3, #9
 348 004e E5DD     		ble	.L26
  95:.\main.c      ****    {
 349              		.loc 1 95 0 is_stmt 1
 350 0050 0822     		mov	r2, #8
 351 0052 0F4B     		ldr	r3, .L29+4
 352 0054 1A82     		strh	r2, [r3, #16]
 353 0056 0DE0     		b	.L27
 354              	.L28:
  97:.\main.c      ****    }
 355              		.loc 1 97 0 discriminator 3
 356 0058 13B2     		sxth	r3, r2
 357 005a 5C1C     		add	r4, r3, #1
 358 005c 0B4D     		ldr	r5, .L29
 359 005e DB00     		lsl	r3, r3, #3
 360 0060 EB18     		add	r3, r5, r3
 361 0062 986B     		ldr	r0, [r3, #56]
 362 0064 D96B     		ldr	r1, [r3, #60]
 363 0066 E300     		lsl	r3, r4, #3
 364 0068 EB18     		add	r3, r5, r3
 365 006a 9863     		str	r0, [r3, #56]
 366 006c D963     		str	r1, [r3, #60]
  95:.\main.c      ****    {
 367              		.loc 1 95 0 discriminator 3
 368 006e 013A     		sub	r2, r2, #1
 369 0070 074B     		ldr	r3, .L29+4
 370 0072 1A82     		strh	r2, [r3, #16]
 371              	.L27:
  95:.\main.c      ****    {
 372              		.loc 1 95 0 is_stmt 0 discriminator 1
 373 0074 064B     		ldr	r3, .L29+4
 374 0076 1A8A     		ldrh	r2, [r3, #16]
 375 0078 13B2     		sxth	r3, r2
 376 007a 002B     		cmp	r3, #0
 377 007c ECDA     		bge	.L28
 100:.\main.c      **** }
ARM GAS  C:\Users\passw\AppData\Local\Temp\ccbXYnhS.s 			page 11


 378              		.loc 1 100 0 is_stmt 1
 379 007e 044B     		ldr	r3, .L29+4
 380 0080 9868     		ldr	r0, [r3, #8]
 381 0082 D968     		ldr	r1, [r3, #12]
 382 0084 FFF7FEFF 		bl	__aeabi_d2uiz
 383              	.LVL29:
 101:.\main.c      **** 
 384              		.loc 1 101 0
 385              		@ sp needed
 386 0088 38BD     		pop	{r3, r4, r5, pc}
 387              	.L30:
 388 008a C046     		.align	2
 389              	.L29:
 390 008c 00000000 		.word	.LANCHOR0
 391 0090 80000000 		.word	.LANCHOR2
 392 0094 00000000 		.word	.LANCHOR1
 393              		.cfi_endproc
 394              	.LFE38:
 395              		.size	mavg_filter, .-mavg_filter
 396              		.section	.text.RX_interrupt,"ax",%progbits
 397              		.align	2
 398              		.global	RX_interrupt
 399              		.code	16
 400              		.thumb_func
 401              		.type	RX_interrupt, %function
 402              	RX_interrupt:
 403              	.LFB39:
 104:.\main.c      ****     char str[4];
 404              		.loc 1 104 0
 405              		.cfi_startproc
 406 0000 30B5     		push	{r4, r5, lr}
 407              		.cfi_def_cfa_offset 12
 408              		.cfi_offset 4, -12
 409              		.cfi_offset 5, -8
 410              		.cfi_offset 14, -4
 411 0002 83B0     		sub	sp, sp, #12
 412              		.cfi_def_cfa_offset 24
 106:.\main.c      ****     UART_ClearRxInterruptSource(UART_GetRxInterruptSource());
 413              		.loc 1 106 0
 414 0004 FFF7FEFF 		bl	UART_UartGetChar
 415              	.LVL30:
 416 0008 C0B2     		uxtb	r0, r0
 417              	.LVL31:
 107:.\main.c      ****     
 418              		.loc 1 107 0
 419 000a 264B     		ldr	r3, .L36
 420 000c 1A68     		ldr	r2, [r3]
 421 000e 1A60     		str	r2, [r3]
 109:.\main.c      ****     {
 422              		.loc 1 109 0
 423 0010 254B     		ldr	r3, .L36+4
 424 0012 9B7C     		ldrb	r3, [r3, #18]
 425 0014 002B     		cmp	r3, #0
 426 0016 05D1     		bne	.L32
 113:.\main.c      ****         current_byte = HIGHBYTE;                    // Prepare to receive HIGH byte on next interru
 427              		.loc 1 113 0
 428 0018 244B     		ldr	r3, .L36+8
ARM GAS  C:\Users\passw\AppData\Local\Temp\ccbXYnhS.s 			page 12


 429 001a 1880     		strh	r0, [r3]
 114:.\main.c      ****         return;                                     // Return from interrupt
 430              		.loc 1 114 0
 431 001c 0122     		mov	r2, #1
 432 001e 224B     		ldr	r3, .L36+4
 433 0020 9A74     		strb	r2, [r3, #18]
 434 0022 3DE0     		b	.L31
 435              	.L32:
 118:.\main.c      ****     {
 436              		.loc 1 118 0
 437 0024 012B     		cmp	r3, #1
 438 0026 3BD1     		bne	.L31
 120:.\main.c      ****         current_byte = LOWBYTE;                     // Prepare to receive LOW byte on next interrup
 439              		.loc 1 120 0
 440 0028 204D     		ldr	r5, .L36+8
 441 002a 0002     		lsl	r0, r0, #8
 442              	.LVL32:
 443 002c 2B88     		ldrh	r3, [r5]
 444 002e C018     		add	r0, r0, r3
 445 0030 2880     		strh	r0, [r5]
 121:.\main.c      ****                 
 446              		.loc 1 121 0
 447 0032 1D4C     		ldr	r4, .L36+4
 448 0034 0023     		mov	r3, #0
 449 0036 A374     		strb	r3, [r4, #18]
 123:.\main.c      ****             value_out[1] = value_out[0];
 450              		.loc 1 123 0
 451 0038 0020     		mov	r0, #0
 452 003a FFF7FEFF 		bl	Measure_When_Low_Write
 453              	.LVL33:
 124:.\main.c      ****             //low_pass_new = low_pass_filter(value_in);
 454              		.loc 1 124 0
 455 003e A38A     		ldrh	r3, [r4, #20]
 456 0040 E382     		strh	r3, [r4, #22]
 127:.\main.c      ****             value_out[0] = avg_new; 
 457              		.loc 1 127 0
 458 0042 0023     		mov	r3, #0
 459 0044 E85E     		ldrsh	r0, [r5, r3]
 460 0046 FFF7FEFF 		bl	mavg_filter
 461              	.LVL34:
 462 004a 80B2     		uxth	r0, r0
 463 004c 184B     		ldr	r3, .L36+12
 464 004e 1880     		strh	r0, [r3]
 128:.\main.c      ****         
 465              		.loc 1 128 0
 466 0050 A082     		strh	r0, [r4, #20]
 130:.\main.c      ****         
 467              		.loc 1 130 0
 468 0052 0120     		mov	r0, #1
 469 0054 FFF7FEFF 		bl	Measure_When_Low_Write
 470              	.LVL35:
 133:.\main.c      ****         {
 471              		.loc 1 133 0
 472 0058 1422     		mov	r2, #20
 473 005a A35E     		ldrsh	r3, [r4, r2]
 474 005c E02B     		cmp	r3, #224
 475 005e 16DD     		ble	.L35
ARM GAS  C:\Users\passw\AppData\Local\Temp\ccbXYnhS.s 			page 13


 133:.\main.c      ****         {
 476              		.loc 1 133 0 is_stmt 0 discriminator 1
 477 0060 114B     		ldr	r3, .L36+4
 478 0062 1622     		mov	r2, #22
 479 0064 9B5E     		ldrsh	r3, [r3, r2]
 480 0066 E02B     		cmp	r3, #224
 481 0068 11DC     		bgt	.L35
 135:.\main.c      ****             UART_BLE_UartPutString(itoa(j,str,10));             // Notify BLE_Peripheral
 482              		.loc 1 135 0 is_stmt 1
 483 006a 0F4B     		ldr	r3, .L36+4
 484 006c 188B     		ldrh	r0, [r3, #24]
 485 006e 0130     		add	r0, r0, #1
 486 0070 80B2     		uxth	r0, r0
 487 0072 1883     		strh	r0, [r3, #24]
 136:.\main.c      ****             UART_BLE_UartPutChar(10);    
 488              		.loc 1 136 0
 489 0074 00B2     		sxth	r0, r0
 490 0076 01A9     		add	r1, sp, #4
 491 0078 0A22     		mov	r2, #10
 492 007a FFF7FEFF 		bl	itoa
 493              	.LVL36:
 494 007e FFF7FEFF 		bl	UART_BLE_UartPutString
 495              	.LVL37:
 137:.\main.c      ****             UART_BLE_UartPutChar(13);  
 496              		.loc 1 137 0
 497 0082 0A20     		mov	r0, #10
 498 0084 FFF7FEFF 		bl	UART_BLE_SpiUartWriteTxData
 499              	.LVL38:
 138:.\main.c      ****         }
 500              		.loc 1 138 0
 501 0088 0D20     		mov	r0, #13
 502 008a FFF7FEFF 		bl	UART_BLE_SpiUartWriteTxData
 503              	.LVL39:
 504              	.L35:
 145:.\main.c      ****         UART_UartPutChar(avg_new>>8); 
 505              		.loc 1 145 0
 506 008e 084C     		ldr	r4, .L36+12
 507 0090 0023     		mov	r3, #0
 508 0092 E05E     		ldrsh	r0, [r4, r3]
 509 0094 FFF7FEFF 		bl	UART_SpiUartWriteTxData
 510              	.LVL40:
 146:.\main.c      ****     }
 511              		.loc 1 146 0
 512 0098 0120     		mov	r0, #1
 513 009a 2056     		ldrsb	r0, [r4, r0]
 514 009c FFF7FEFF 		bl	UART_SpiUartWriteTxData
 515              	.LVL41:
 516              	.L31:
 148:.\main.c      **** 
 517              		.loc 1 148 0
 518 00a0 03B0     		add	sp, sp, #12
 519              		@ sp needed
 520 00a2 30BD     		pop	{r4, r5, pc}
 521              	.L37:
 522              		.align	2
 523              	.L36:
 524 00a4 C00F2740 		.word	1076301760
ARM GAS  C:\Users\passw\AppData\Local\Temp\ccbXYnhS.s 			page 14


 525 00a8 80000000 		.word	.LANCHOR2
 526 00ac 00000000 		.word	value_in
 527 00b0 00000000 		.word	avg_new
 528              		.cfi_endproc
 529              	.LFE39:
 530              		.size	RX_interrupt, .-RX_interrupt
 531              		.section	.text.main,"ax",%progbits
 532              		.align	2
 533              		.global	main
 534              		.code	16
 535              		.thumb_func
 536              		.type	main, %function
 537              	main:
 538              	.LFB42:
 161:.\main.c      **** 
 162:.\main.c      **** 
 163:.\main.c      **** int main()
 164:.\main.c      **** {
 539              		.loc 1 164 0
 540              		.cfi_startproc
 541 0000 08B5     		push	{r3, lr}
 542              		.cfi_def_cfa_offset 8
 543              		.cfi_offset 3, -8
 544              		.cfi_offset 14, -4
 165:.\main.c      ****  
 166:.\main.c      ****     CyGlobalIntEnable;                          /* Enable global interrupts */
 545              		.loc 1 166 0
 546              	@ 166 ".\main.c" 1
 547 0002 62B6     		CPSIE   i
 548              	@ 0 "" 2
 167:.\main.c      ****     Timer_ISR_StartEx(Timer_interrupt);         /* Set interrupt address */
 549              		.loc 1 167 0
 550              		.code	16
 551 0004 0A48     		ldr	r0, .L39
 552 0006 FFF7FEFF 		bl	Timer_ISR_StartEx
 553              	.LVL42:
 168:.\main.c      ****     UART_RX_ISR_StartEx(RX_interrupt);          /* Set interrupt address */
 554              		.loc 1 168 0
 555 000a 0A48     		ldr	r0, .L39+4
 556 000c FFF7FEFF 		bl	UART_RX_ISR_StartEx
 557              	.LVL43:
 169:.\main.c      ****     UART_BLE_RX_ISR_StartEx(BLE_RX_interrupt);  /* Set interrupt address */
 558              		.loc 1 169 0
 559 0010 0948     		ldr	r0, .L39+8
 560 0012 FFF7FEFF 		bl	UART_BLE_RX_ISR_StartEx
 561              	.LVL44:
 170:.\main.c      ****     UART_Start();                               /* Start UART */
 562              		.loc 1 170 0
 563 0016 FFF7FEFF 		bl	UART_Start
 564              	.LVL45:
 171:.\main.c      ****     UART_BLE_Start();                           /* Start UART_BLE */
 565              		.loc 1 171 0
 566 001a FFF7FEFF 		bl	UART_BLE_Start
 567              	.LVL46:
 172:.\main.c      ****     Timer_Start();                              /* Start Timer */
 568              		.loc 1 172 0
 569 001e FFF7FEFF 		bl	Timer_Start
ARM GAS  C:\Users\passw\AppData\Local\Temp\ccbXYnhS.s 			page 15


 570              	.LVL47:
 173:.\main.c      ****     Timer_ISR_Enable();                         /* Enable Timer interrupt service routine*/
 571              		.loc 1 173 0
 572 0022 FFF7FEFF 		bl	Timer_ISR_Enable
 573              	.LVL48:
 174:.\main.c      ****     CySysPmSleep();                             /* Enter Sleep mode */
 574              		.loc 1 174 0
 575 0026 FFF7FEFF 		bl	CySysPmSleep
 576              	.LVL49:
 175:.\main.c      ****     return 0;
 176:.\main.c      **** }
 577              		.loc 1 176 0
 578 002a 0020     		mov	r0, #0
 579              		@ sp needed
 580 002c 08BD     		pop	{r3, pc}
 581              	.L40:
 582 002e C046     		.align	2
 583              	.L39:
 584 0030 00000000 		.word	Timer_interrupt
 585 0034 00000000 		.word	RX_interrupt
 586 0038 00000000 		.word	BLE_RX_interrupt
 587              		.cfi_endproc
 588              	.LFE42:
 589              		.size	main, .-main
 590              		.global	FirstCall
 591              		.comm	unsigned_data,2,2
 592              		.comm	pointer,2,2
 593              		.global	counter
 594              		.comm	avg_new,2,2
 595              		.comm	low_pass_new,2,2
 596              		.comm	old,2,2
 597              		.comm	signed_data,2,2
 598              		.comm	diff,2,2
 599              		.comm	newest,2,2
 600              		.comm	oldest,2,2
 601              		.global	j
 602              		.global	i
 603              		.global	value_out
 604              		.comm	value_in,2,2
 605              		.global	current_byte
 606              		.global	a_low
 607              		.global	b_low
 608              		.global	y_low
 609              		.global	x_low
 610              		.global	b_mavg
 611              		.global	y_mavg
 612              		.global	x_mavg
 613              		.global	y
 614              		.data
 615              		.align	3
 616              		.set	.LANCHOR1,. + 0
 617              		.type	b_low, %object
 618              		.size	b_low, 24
 619              	b_low:
 620 0000 FA7E6ABC 		.word	-1133871366
 621 0004 7493583F 		.word	1062769524
 622 0008 E09C11A5 		.word	-1525572384
ARM GAS  C:\Users\passw\AppData\Local\Temp\ccbXYnhS.s 			page 16


 623 000c BDC1673F 		.word	1063764413
 624 0010 FA7E6ABC 		.word	-1133871366
 625 0014 7493583F 		.word	1062769524
 626              		.type	a_low, %object
 627              		.size	a_low, 24
 628              	a_low:
 629 0018 00000000 		.word	0
 630 001c 0000F03F 		.word	1072693248
 631 0020 D34D6210 		.word	274877907
 632 0024 5839FEBF 		.word	-1073858216
 633 0028 C2172653 		.word	1395005378
 634 002c 05A3EC3F 		.word	1072472837
 635              		.type	b_mavg, %object
 636              		.size	b_mavg, 80
 637              	b_mavg:
 638 0030 9A999999 		.word	-1717986918
 639 0034 9999B93F 		.word	1069128089
 640 0038 9A999999 		.word	-1717986918
 641 003c 9999B93F 		.word	1069128089
 642 0040 9A999999 		.word	-1717986918
 643 0044 9999B93F 		.word	1069128089
 644 0048 9A999999 		.word	-1717986918
 645 004c 9999B93F 		.word	1069128089
 646 0050 9A999999 		.word	-1717986918
 647 0054 9999B93F 		.word	1069128089
 648 0058 9A999999 		.word	-1717986918
 649 005c 9999B93F 		.word	1069128089
 650 0060 9A999999 		.word	-1717986918
 651 0064 9999B93F 		.word	1069128089
 652 0068 9A999999 		.word	-1717986918
 653 006c 9999B93F 		.word	1069128089
 654 0070 9A999999 		.word	-1717986918
 655 0074 9999B93F 		.word	1069128089
 656 0078 9A999999 		.word	-1717986918
 657 007c 9999B93F 		.word	1069128089
 658              		.type	FirstCall, %object
 659              		.size	FirstCall, 1
 660              	FirstCall:
 661 0080 01       		.byte	1
 662 0081 00000000 		.bss
 662      000000
 663              		.align	3
 664              		.set	.LANCHOR0,. + 0
 665              		.set	.LANCHOR2,. + 128
 666              		.type	counter, %object
 667              		.size	counter, 2
 668              	counter:
 669 0000 0000     		.space	2
 670 0002 00000000 		.space	6
 670      0000
 671              		.type	x_low, %object
 672              		.size	x_low, 24
 673              	x_low:
 674 0008 00000000 		.space	24
 674      00000000 
 674      00000000 
 674      00000000 
ARM GAS  C:\Users\passw\AppData\Local\Temp\ccbXYnhS.s 			page 17


 674      00000000 
 675              		.type	y_low, %object
 676              		.size	y_low, 24
 677              	y_low:
 678 0020 00000000 		.space	24
 678      00000000 
 678      00000000 
 678      00000000 
 678      00000000 
 679              		.type	x_mavg, %object
 680              		.size	x_mavg, 80
 681              	x_mavg:
 682 0038 00000000 		.space	80
 682      00000000 
 682      00000000 
 682      00000000 
 682      00000000 
 683              		.type	y_mavg, %object
 684              		.size	y_mavg, 8
 685              	y_mavg:
 686 0088 00000000 		.space	8
 686      00000000 
 687              		.type	i, %object
 688              		.size	i, 2
 689              	i:
 690 0090 0000     		.space	2
 691              		.type	current_byte, %object
 692              		.size	current_byte, 1
 693              	current_byte:
 694 0092 00       		.space	1
 695 0093 00       		.space	1
 696              		.type	value_out, %object
 697              		.size	value_out, 4
 698              	value_out:
 699 0094 00000000 		.space	4
 700              		.type	j, %object
 701              		.size	j, 2
 702              	j:
 703 0098 0000     		.space	2
 704 009a 0000     		.space	2
 705              		.type	y, %object
 706              		.size	y, 8
 707              	y:
 708 009c 00000000 		.space	8
 708      00000000 
 709 00a4 00000000 		.text
 710              	.Letext0:
 711              		.file 2 "Generated_Source\\PSoC4/cytypes.h"
 712              		.file 3 "Generated_Source\\PSoC4/UART_BLE_SPI_UART.h"
 713              		.file 4 "Generated_Source\\PSoC4/Timer.h"
 714              		.file 5 "Generated_Source\\PSoC4/UART_SPI_UART.h"
 715              		.file 6 "Generated_Source\\PSoC4/Measure_When_Low.h"
 716              		.file 7 "Generated_Source\\PSoC4/Timer_ISR.h"
 717              		.file 8 "Generated_Source\\PSoC4/UART_RX_ISR.h"
 718              		.file 9 "Generated_Source\\PSoC4/UART_BLE_RX_ISR.h"
 719              		.file 10 "Generated_Source\\PSoC4/UART.h"
 720              		.file 11 "Generated_Source\\PSoC4/UART_BLE.h"
ARM GAS  C:\Users\passw\AppData\Local\Temp\ccbXYnhS.s 			page 18


 721              		.file 12 "Generated_Source\\PSoC4/cyPm.h"
 722              		.file 13 "c:\\program files (x86)\\cypress\\psoc creator\\3.3\\psoc creator\\import\\gnu\\arm\\4.9