ARM GAS  C:\Users\LINETT~1\AppData\Local\Temp\ccb9UJpd.s 			page 1


   1              		.cpu cortex-m0
   2              		.fpu softvfp
   3              		.eabi_attribute 20, 1
   4              		.eabi_attribute 21, 1
   5              		.eabi_attribute 23, 3
   6              		.eabi_attribute 24, 1
   7              		.eabi_attribute 25, 1
   8              		.eabi_attribute 26, 1
   9              		.eabi_attribute 30, 6
  10              		.eabi_attribute 34, 0
  11              		.eabi_attribute 18, 4
  12              		.code	16
  13              		.file	"main.c"
  14              		.text
  15              	.Ltext0:
  16              		.cfi_sections	.debug_frame
  17              		.global	x_mavg
  18              		.bss
  19              		.align	3
  20              		.type	x_mavg, %object
  21              		.size	x_mavg, 80
  22              	x_mavg:
  23 0000 00000000 		.space	80
  23      00000000 
  23      00000000 
  23      00000000 
  23      00000000 
  24              		.global	y_mavg
  25              		.align	3
  26              		.type	y_mavg, %object
  27              		.size	y_mavg, 8
  28              	y_mavg:
  29 0050 00000000 		.space	8
  29      00000000 
  30              		.global	b_mavg
  31              		.data
  32              		.align	3
  33              		.type	b_mavg, %object
  34              		.size	b_mavg, 80
  35              	b_mavg:
  36 0000 9A999999 		.word	-1717986918
  37 0004 9999B93F 		.word	1069128089
  38 0008 9A999999 		.word	-1717986918
  39 000c 9999B93F 		.word	1069128089
  40 0010 9A999999 		.word	-1717986918
  41 0014 9999B93F 		.word	1069128089
  42 0018 9A999999 		.word	-1717986918
  43 001c 9999B93F 		.word	1069128089
  44 0020 9A999999 		.word	-1717986918
  45 0024 9999B93F 		.word	1069128089
  46 0028 9A999999 		.word	-1717986918
  47 002c 9999B93F 		.word	1069128089
  48 0030 9A999999 		.word	-1717986918
  49 0034 9999B93F 		.word	1069128089
  50 0038 9A999999 		.word	-1717986918
  51 003c 9999B93F 		.word	1069128089
  52 0040 9A999999 		.word	-1717986918
ARM GAS  C:\Users\LINETT~1\AppData\Local\Temp\ccb9UJpd.s 			page 2


  53 0044 9999B93F 		.word	1069128089
  54 0048 9A999999 		.word	-1717986918
  55 004c 9999B93F 		.word	1069128089
  56              		.global	x2_mavg
  57              		.bss
  58              		.align	3
  59              		.type	x2_mavg, %object
  60              		.size	x2_mavg, 80
  61              	x2_mavg:
  62 0058 00000000 		.space	80
  62      00000000 
  62      00000000 
  62      00000000 
  62      00000000 
  63              		.global	y2_mavg
  64              		.align	3
  65              		.type	y2_mavg, %object
  66              		.size	y2_mavg, 8
  67              	y2_mavg:
  68 00a8 00000000 		.space	8
  68      00000000 
  69              		.global	b2_mavg
  70              		.data
  71              		.align	3
  72              		.type	b2_mavg, %object
  73              		.size	b2_mavg, 80
  74              	b2_mavg:
  75 0050 9A999999 		.word	-1717986918
  76 0054 9999B93F 		.word	1069128089
  77 0058 9A999999 		.word	-1717986918
  78 005c 9999B93F 		.word	1069128089
  79 0060 9A999999 		.word	-1717986918
  80 0064 9999B93F 		.word	1069128089
  81 0068 9A999999 		.word	-1717986918
  82 006c 9999B93F 		.word	1069128089
  83 0070 9A999999 		.word	-1717986918
  84 0074 9999B93F 		.word	1069128089
  85 0078 9A999999 		.word	-1717986918
  86 007c 9999B93F 		.word	1069128089
  87 0080 9A999999 		.word	-1717986918
  88 0084 9999B93F 		.word	1069128089
  89 0088 9A999999 		.word	-1717986918
  90 008c 9999B93F 		.word	1069128089
  91 0090 9A999999 		.word	-1717986918
  92 0094 9999B93F 		.word	1069128089
  93 0098 9A999999 		.word	-1717986918
  94 009c 9999B93F 		.word	1069128089
  95              		.global	x_low
  96              		.bss
  97              		.align	3
  98              		.type	x_low, %object
  99              		.size	x_low, 24
 100              	x_low:
 101 00b0 00000000 		.space	24
 101      00000000 
 101      00000000 
 101      00000000 
ARM GAS  C:\Users\LINETT~1\AppData\Local\Temp\ccb9UJpd.s 			page 3


 101      00000000 
 102              		.global	y_low
 103              		.align	3
 104              		.type	y_low, %object
 105              		.size	y_low, 24
 106              	y_low:
 107 00c8 00000000 		.space	24
 107      00000000 
 107      00000000 
 107      00000000 
 107      00000000 
 108              		.global	b_low
 109              		.data
 110              		.align	3
 111              		.type	b_low, %object
 112              		.size	b_low, 24
 113              	b_low:
 114 00a0 FA7E6ABC 		.word	-1133871366
 115 00a4 7493583F 		.word	1062769524
 116 00a8 E09C11A5 		.word	-1525572384
 117 00ac BDC1673F 		.word	1063764413
 118 00b0 FA7E6ABC 		.word	-1133871366
 119 00b4 7493583F 		.word	1062769524
 120              		.global	a_low
 121              		.align	3
 122              		.type	a_low, %object
 123              		.size	a_low, 24
 124              	a_low:
 125 00b8 00000000 		.word	0
 126 00bc 0000F03F 		.word	1072693248
 127 00c0 D34D6210 		.word	274877907
 128 00c4 5839FEBF 		.word	-1073858216
 129 00c8 C2172653 		.word	1395005378
 130 00cc 05A3EC3F 		.word	1072472837
 131              		.comm	value_in,2,2
 132              		.global	value_out
 133              		.bss
 134              		.align	2
 135              		.type	value_out, %object
 136              		.size	value_out, 4
 137              	value_out:
 138 00e0 00000000 		.space	4
 139              		.global	i
 140              		.align	1
 141              		.type	i, %object
 142              		.size	i, 2
 143              	i:
 144 00e4 0000     		.space	2
 145              		.global	j
 146              		.align	1
 147              		.type	j, %object
 148              		.size	j, 2
 149              	j:
 150 00e6 0000     		.space	2
 151              		.global	k
 152              		.align	1
 153              		.type	k, %object
ARM GAS  C:\Users\LINETT~1\AppData\Local\Temp\ccb9UJpd.s 			page 4


 154              		.size	k, 2
 155              	k:
 156 00e8 0000     		.space	2
 157              		.comm	grader_groen,2,2
 158              		.comm	grader_roed,2,2
 159              		.comm	diff,2,2
 160              		.comm	diff2,2,2
 161              		.comm	old,2,2
 162              		.global	counter
 163              		.align	1
 164              		.type	counter, %object
 165              		.size	counter, 2
 166              	counter:
 167 00ea 0000     		.space	2
 168              		.global	FirstCall
 169              		.data
 170              		.type	FirstCall, %object
 171              		.size	FirstCall, 1
 172              	FirstCall:
 173 00d0 01       		.byte	1
 174              		.global	accroed
 175 00d1 00000000 		.bss
 175      000000
 176              		.align	1
 177              		.type	accroed, %object
 178              		.size	accroed, 2
 179              	accroed:
 180 00ec 0000     		.space	2
 181              		.global	accgroen
 182              		.align	1
 183              		.type	accgroen, %object
 184              		.size	accgroen, 2
 185              	accgroen:
 186 00ee 0000     		.space	2
 187              		.global	EMG
 188              		.align	1
 189              		.type	EMG, %object
 190              		.size	EMG, 2
 191              	EMG:
 192 00f0 0000     		.space	2
 193              		.global	result
 194 00f2 0000     		.align	2
 195              		.type	result, %object
 196              		.size	result, 6
 197              	result:
 198 00f4 00000000 		.space	6
 198      0000
 199              		.global	data_ready
 200              		.type	data_ready, %object
 201              		.size	data_ready, 1
 202              	data_ready:
 203 00fa 00       		.space	1
 204              		.comm	mav_data_roed,2,2
 205              		.comm	mav_data_groen,2,2
 206              		.comm	samlet_grader,2,2
 207              		.comm	low_pass_data,2,2
 208              		.comm	diff_data,2,2
ARM GAS  C:\Users\LINETT~1\AppData\Local\Temp\ccb9UJpd.s 			page 5


 209              		.global	__aeabi_dcmpgt
 210              		.global	__aeabi_dadd
 211              		.global	__aeabi_d2iz
 212              		.global	__aeabi_dsub
 213 00fb 00000000 		.section	.text.floor_and_convert,"ax",%progbits
 213      00
 214              		.align	2
 215              		.global	floor_and_convert
 216              		.code	16
 217              		.thumb_func
 218              		.type	floor_and_convert, %function
 219              	floor_and_convert:
 220              	.LFB37:
 221              		.file 1 ".\\main.c"
   1:.\main.c      **** #include <project.h>
   2:.\main.c      **** #include <my_defines.h>
   3:.\main.c      **** #include <stdlib.h>
   4:.\main.c      **** 
   5:.\main.c      **** #define FALSE 0
   6:.\main.c      **** #define TRUE 1
   7:.\main.c      **** #define LED_ON 0u
   8:.\main.c      **** #define LED_OFF 1u
   9:.\main.c      **** 
  10:.\main.c      **** /* Moving average filter */ 
  11:.\main.c      **** #define FILTER_LENGTH_mavg 9
  12:.\main.c      **** double x_mavg[FILTER_LENGTH_mavg+1] = {0,0,0,0,0,0,0,0,0,0};
  13:.\main.c      **** double y_mavg = 0;
  14:.\main.c      **** double b_mavg[FILTER_LENGTH_mavg+1] = {0.1,0.1,0.1,0.1,0.1,0.1,0.1,0.1,0.1,0.1};
  15:.\main.c      **** 
  16:.\main.c      **** /* Moving average filter 2 */
  17:.\main.c      **** #define FILTER_LENGTH_mavg2 9
  18:.\main.c      **** double x2_mavg[FILTER_LENGTH_mavg2+1] = {0,0,0,0,0,0,0,0,0,0};
  19:.\main.c      **** double y2_mavg = 0;
  20:.\main.c      **** double b2_mavg[FILTER_LENGTH_mavg2+1] = {0.1,0.1,0.1,0.1,0.1,0.1,0.1,0.1,0.1,0.1};
  21:.\main.c      **** 
  22:.\main.c      **** #define FILTER_LENGTH_low 2
  23:.\main.c      **** double x_low[FILTER_LENGTH_low+1] = {0, 0, 0};
  24:.\main.c      **** double y_low[FILTER_LENGTH_low+1] = {0, 0, 0};
  25:.\main.c      **** double b_low[FILTER_LENGTH_low+1] = {0.0015, 0.0029, 0.0015};
  26:.\main.c      **** double a_low[FILTER_LENGTH_low+1] = {1.0000, -1.8890, 0.8949};
  27:.\main.c      **** 
  28:.\main.c      **** int16 value_in,value_out[2]={0,0},i=0,j=0,k=0, grader_groen, grader_roed, diff, diff2, old, counter
  29:.\main.c      **** char FirstCall = TRUE;
  30:.\main.c      **** 
  31:.\main.c      **** int16 accroed = {0};
  32:.\main.c      **** int16 accgroen = {0};
  33:.\main.c      **** int16 EMG = {0};
  34:.\main.c      **** int16 result[num_of_channels] = {0};
  35:.\main.c      **** uint8 data_ready = FALSE;
  36:.\main.c      **** 
  37:.\main.c      **** int16 mav_data_roed;
  38:.\main.c      **** int16 mav_data_groen;
  39:.\main.c      **** int16 samlet_grader;
  40:.\main.c      **** int16 low_pass_data;
  41:.\main.c      **** int16 diff_data;
  42:.\main.c      **** 
  43:.\main.c      **** /***********************************Konvertering til heltal***********************************/
ARM GAS  C:\Users\LINETT~1\AppData\Local\Temp\ccb9UJpd.s 			page 6


  44:.\main.c      **** signed int floor_and_convert(double y)
  45:.\main.c      **** {
 222              		.loc 1 45 0
 223              		.cfi_startproc
 224 0000 90B5     		push	{r4, r7, lr}
 225              		.cfi_def_cfa_offset 12
 226              		.cfi_offset 4, -12
 227              		.cfi_offset 7, -8
 228              		.cfi_offset 14, -4
 229 0002 83B0     		sub	sp, sp, #12
 230              		.cfi_def_cfa_offset 24
 231 0004 00AF     		add	r7, sp, #0
 232              		.cfi_def_cfa_register 7
 233 0006 3860     		str	r0, [r7]
 234 0008 7960     		str	r1, [r7, #4]
  46:.\main.c      ****    if (y > 0)
 235              		.loc 1 46 0
 236 000a 3868     		ldr	r0, [r7]
 237 000c 7968     		ldr	r1, [r7, #4]
 238 000e 0022     		mov	r2, #0
 239 0010 0023     		mov	r3, #0
 240 0012 FFF7FEFF 		bl	__aeabi_dcmpgt
 241 0016 031E     		sub	r3, r0, #0
 242 0018 0DD0     		beq	.L6
  47:.\main.c      ****       return (signed int) (y+0.5);
 243              		.loc 1 47 0
 244 001a 3868     		ldr	r0, [r7]
 245 001c 7968     		ldr	r1, [r7, #4]
 246 001e 0022     		mov	r2, #0
 247 0020 0D4B     		ldr	r3, .L7
 248 0022 FFF7FEFF 		bl	__aeabi_dadd
 249 0026 031C     		mov	r3, r0
 250 0028 0C1C     		mov	r4, r1
 251 002a 181C     		mov	r0, r3
 252 002c 211C     		mov	r1, r4
 253 002e FFF7FEFF 		bl	__aeabi_d2iz
 254 0032 031C     		mov	r3, r0
 255 0034 0CE0     		b	.L4
 256              	.L6:
  48:.\main.c      ****    else
  49:.\main.c      ****       return (signed int) (y-0.5);
 257              		.loc 1 49 0
 258 0036 3868     		ldr	r0, [r7]
 259 0038 7968     		ldr	r1, [r7, #4]
 260 003a 0022     		mov	r2, #0
 261 003c 064B     		ldr	r3, .L7
 262 003e FFF7FEFF 		bl	__aeabi_dsub
 263 0042 031C     		mov	r3, r0
 264 0044 0C1C     		mov	r4, r1
 265 0046 181C     		mov	r0, r3
 266 0048 211C     		mov	r1, r4
 267 004a FFF7FEFF 		bl	__aeabi_d2iz
 268 004e 031C     		mov	r3, r0
 269              	.L4:
  50:.\main.c      **** }
 270              		.loc 1 50 0
 271 0050 181C     		mov	r0, r3
ARM GAS  C:\Users\LINETT~1\AppData\Local\Temp\ccb9UJpd.s 			page 7


 272 0052 BD46     		mov	sp, r7
 273 0054 03B0     		add	sp, sp, #12
 274              		@ sp needed
 275 0056 90BD     		pop	{r4, r7, pc}
 276              	.L8:
 277              		.align	2
 278              	.L7:
 279 0058 0000E03F 		.word	1071644672
 280              		.cfi_endproc
 281              	.LFE37:
 282              		.size	floor_and_convert, .-floor_and_convert
 283              		.global	__aeabi_i2d
 284              		.global	__aeabi_dmul
 285              		.section	.text.mavg_filter,"ax",%progbits
 286              		.align	2
 287              		.global	mavg_filter
 288              		.code	16
 289              		.thumb_func
 290              		.type	mavg_filter, %function
 291              	mavg_filter:
 292              	.LFB38:
  51:.\main.c      **** 
  52:.\main.c      **** /***********************************Moving average filter***********************************/
  53:.\main.c      **** signed int mavg_filter(signed int data)
  54:.\main.c      **** {
 293              		.loc 1 54 0
 294              		.cfi_startproc
 295 0000 90B5     		push	{r4, r7, lr}
 296              		.cfi_def_cfa_offset 12
 297              		.cfi_offset 4, -12
 298              		.cfi_offset 7, -8
 299              		.cfi_offset 14, -4
 300 0002 83B0     		sub	sp, sp, #12
 301              		.cfi_def_cfa_offset 24
 302 0004 00AF     		add	r7, sp, #0
 303              		.cfi_def_cfa_register 7
 304 0006 7860     		str	r0, [r7, #4]
  55:.\main.c      ****    x_mavg[0] =  (double) data;                      // Read received sample and perform type casts
 305              		.loc 1 55 0
 306 0008 7868     		ldr	r0, [r7, #4]
 307 000a FFF7FEFF 		bl	__aeabi_i2d
 308 000e 031C     		mov	r3, r0
 309 0010 0C1C     		mov	r4, r1
 310 0012 384A     		ldr	r2, .L15
 311 0014 1360     		str	r3, [r2]
 312 0016 5460     		str	r4, [r2, #4]
  56:.\main.c      ****    y_mavg = 0;
 313              		.loc 1 56 0
 314 0018 374A     		ldr	r2, .L15+4
 315 001a 0023     		mov	r3, #0
 316 001c 0024     		mov	r4, #0
 317 001e 1360     		str	r3, [r2]
 318 0020 5460     		str	r4, [r2, #4]
  57:.\main.c      **** 
  58:.\main.c      ****    for(i = 0;i <= FILTER_LENGTH_mavg;i++)           // Run FIR filter for each received sample
 319              		.loc 1 58 0
 320 0022 364B     		ldr	r3, .L15+8
ARM GAS  C:\Users\LINETT~1\AppData\Local\Temp\ccb9UJpd.s 			page 8


 321 0024 0022     		mov	r2, #0
 322 0026 1A80     		strh	r2, [r3]
 323 0028 30E0     		b	.L10
 324              	.L11:
  59:.\main.c      ****    {
  60:.\main.c      ****       y_mavg += b_mavg[i]*x_mavg[i];
 325              		.loc 1 60 0 discriminator 3
 326 002a 344B     		ldr	r3, .L15+8
 327 002c 1B88     		ldrh	r3, [r3]
 328 002e 1BB2     		sxth	r3, r3
 329 0030 334A     		ldr	r2, .L15+12
 330 0032 DB00     		lsl	r3, r3, #3
 331 0034 D318     		add	r3, r2, r3
 332 0036 1968     		ldr	r1, [r3]
 333 0038 5A68     		ldr	r2, [r3, #4]
 334 003a 304B     		ldr	r3, .L15+8
 335 003c 1B88     		ldrh	r3, [r3]
 336 003e 1BB2     		sxth	r3, r3
 337 0040 2C48     		ldr	r0, .L15
 338 0042 DB00     		lsl	r3, r3, #3
 339 0044 C318     		add	r3, r0, r3
 340 0046 5C68     		ldr	r4, [r3, #4]
 341 0048 1B68     		ldr	r3, [r3]
 342 004a 081C     		mov	r0, r1
 343 004c 111C     		mov	r1, r2
 344 004e 1A1C     		mov	r2, r3
 345 0050 231C     		mov	r3, r4
 346 0052 FFF7FEFF 		bl	__aeabi_dmul
 347 0056 031C     		mov	r3, r0
 348 0058 0C1C     		mov	r4, r1
 349 005a 191C     		mov	r1, r3
 350 005c 221C     		mov	r2, r4
 351 005e 264B     		ldr	r3, .L15+4
 352 0060 5C68     		ldr	r4, [r3, #4]
 353 0062 1B68     		ldr	r3, [r3]
 354 0064 081C     		mov	r0, r1
 355 0066 111C     		mov	r1, r2
 356 0068 1A1C     		mov	r2, r3
 357 006a 231C     		mov	r3, r4
 358 006c FFF7FEFF 		bl	__aeabi_dadd
 359 0070 031C     		mov	r3, r0
 360 0072 0C1C     		mov	r4, r1
 361 0074 204A     		ldr	r2, .L15+4
 362 0076 1360     		str	r3, [r2]
 363 0078 5460     		str	r4, [r2, #4]
  58:.\main.c      ****    {
 364              		.loc 1 58 0 discriminator 3
 365 007a 204B     		ldr	r3, .L15+8
 366 007c 1B88     		ldrh	r3, [r3]
 367 007e 9BB2     		uxth	r3, r3
 368 0080 9BB2     		uxth	r3, r3
 369 0082 0133     		add	r3, r3, #1
 370 0084 9BB2     		uxth	r3, r3
 371 0086 9AB2     		uxth	r2, r3
 372 0088 1C4B     		ldr	r3, .L15+8
 373 008a 1A80     		strh	r2, [r3]
 374              	.L10:
ARM GAS  C:\Users\LINETT~1\AppData\Local\Temp\ccb9UJpd.s 			page 9


  58:.\main.c      ****    {
 375              		.loc 1 58 0 is_stmt 0 discriminator 1
 376 008c 1B4B     		ldr	r3, .L15+8
 377 008e 1B88     		ldrh	r3, [r3]
 378 0090 1BB2     		sxth	r3, r3
 379 0092 092B     		cmp	r3, #9
 380 0094 C9DD     		ble	.L11
  61:.\main.c      ****    } 
  62:.\main.c      ****    
  63:.\main.c      ****    for(i = FILTER_LENGTH_mavg-1;i >= 0;i--)         // Roll x array in order to hold old sample inp
 381              		.loc 1 63 0 is_stmt 1
 382 0096 194B     		ldr	r3, .L15+8
 383 0098 0822     		mov	r2, #8
 384 009a 1A80     		strh	r2, [r3]
 385 009c 19E0     		b	.L12
 386              	.L13:
  64:.\main.c      ****    {
  65:.\main.c      ****       x_mavg[i+1] = x_mavg[i];
 387              		.loc 1 65 0 discriminator 3
 388 009e 174B     		ldr	r3, .L15+8
 389 00a0 1B88     		ldrh	r3, [r3]
 390 00a2 1BB2     		sxth	r3, r3
 391 00a4 5A1C     		add	r2, r3, #1
 392 00a6 154B     		ldr	r3, .L15+8
 393 00a8 1B88     		ldrh	r3, [r3]
 394 00aa 1BB2     		sxth	r3, r3
 395 00ac 1149     		ldr	r1, .L15
 396 00ae DB00     		lsl	r3, r3, #3
 397 00b0 CB18     		add	r3, r1, r3
 398 00b2 5C68     		ldr	r4, [r3, #4]
 399 00b4 1B68     		ldr	r3, [r3]
 400 00b6 0F49     		ldr	r1, .L15
 401 00b8 D200     		lsl	r2, r2, #3
 402 00ba 8A18     		add	r2, r1, r2
 403 00bc 1360     		str	r3, [r2]
 404 00be 5460     		str	r4, [r2, #4]
  63:.\main.c      ****    {
 405              		.loc 1 63 0 discriminator 3
 406 00c0 0E4B     		ldr	r3, .L15+8
 407 00c2 1B88     		ldrh	r3, [r3]
 408 00c4 9BB2     		uxth	r3, r3
 409 00c6 9BB2     		uxth	r3, r3
 410 00c8 013B     		sub	r3, r3, #1
 411 00ca 9BB2     		uxth	r3, r3
 412 00cc 9AB2     		uxth	r2, r3
 413 00ce 0B4B     		ldr	r3, .L15+8
 414 00d0 1A80     		strh	r2, [r3]
 415              	.L12:
  63:.\main.c      ****    {
 416              		.loc 1 63 0 is_stmt 0 discriminator 1
 417 00d2 0A4B     		ldr	r3, .L15+8
 418 00d4 1B88     		ldrh	r3, [r3]
 419 00d6 1BB2     		sxth	r3, r3
 420 00d8 002B     		cmp	r3, #0
 421 00da E0DA     		bge	.L13
  66:.\main.c      ****    }
  67:.\main.c      ****   
ARM GAS  C:\Users\LINETT~1\AppData\Local\Temp\ccb9UJpd.s 			page 10


  68:.\main.c      ****    return (signed int) y_mavg;
 422              		.loc 1 68 0 is_stmt 1
 423 00dc 064B     		ldr	r3, .L15+4
 424 00de 5C68     		ldr	r4, [r3, #4]
 425 00e0 1B68     		ldr	r3, [r3]
 426 00e2 181C     		mov	r0, r3
 427 00e4 211C     		mov	r1, r4
 428 00e6 FFF7FEFF 		bl	__aeabi_d2iz
 429 00ea 031C     		mov	r3, r0
  69:.\main.c      **** }
 430              		.loc 1 69 0
 431 00ec 181C     		mov	r0, r3
 432 00ee BD46     		mov	sp, r7
 433 00f0 03B0     		add	sp, sp, #12
 434              		@ sp needed
 435 00f2 90BD     		pop	{r4, r7, pc}
 436              	.L16:
 437              		.align	2
 438              	.L15:
 439 00f4 00000000 		.word	x_mavg
 440 00f8 00000000 		.word	y_mavg
 441 00fc 00000000 		.word	i
 442 0100 00000000 		.word	b_mavg
 443              		.cfi_endproc
 444              	.LFE38:
 445              		.size	mavg_filter, .-mavg_filter
 446              		.section	.text.mavg_filter2,"ax",%progbits
 447              		.align	2
 448              		.global	mavg_filter2
 449              		.code	16
 450              		.thumb_func
 451              		.type	mavg_filter2, %function
 452              	mavg_filter2:
 453              	.LFB39:
  70:.\main.c      **** 
  71:.\main.c      **** 
  72:.\main.c      **** /***********************************Moving average filter 2***********************************/
  73:.\main.c      **** signed int mavg_filter2(signed int data)
  74:.\main.c      **** {
 454              		.loc 1 74 0
 455              		.cfi_startproc
 456 0000 90B5     		push	{r4, r7, lr}
 457              		.cfi_def_cfa_offset 12
 458              		.cfi_offset 4, -12
 459              		.cfi_offset 7, -8
 460              		.cfi_offset 14, -4
 461 0002 83B0     		sub	sp, sp, #12
 462              		.cfi_def_cfa_offset 24
 463 0004 00AF     		add	r7, sp, #0
 464              		.cfi_def_cfa_register 7
 465 0006 7860     		str	r0, [r7, #4]
  75:.\main.c      ****    x2_mavg[0] =  (int16) data;                      // Read received sample and perform type casts
 466              		.loc 1 75 0
 467 0008 7B68     		ldr	r3, [r7, #4]
 468 000a 9BB2     		uxth	r3, r3
 469 000c 1BB2     		sxth	r3, r3
 470 000e 181C     		mov	r0, r3
ARM GAS  C:\Users\LINETT~1\AppData\Local\Temp\ccb9UJpd.s 			page 11


 471 0010 FFF7FEFF 		bl	__aeabi_i2d
 472 0014 031C     		mov	r3, r0
 473 0016 0C1C     		mov	r4, r1
 474 0018 384A     		ldr	r2, .L23
 475 001a 1360     		str	r3, [r2]
 476 001c 5460     		str	r4, [r2, #4]
  76:.\main.c      ****    y2_mavg = 0;                                      
 477              		.loc 1 76 0
 478 001e 384A     		ldr	r2, .L23+4
 479 0020 0023     		mov	r3, #0
 480 0022 0024     		mov	r4, #0
 481 0024 1360     		str	r3, [r2]
 482 0026 5460     		str	r4, [r2, #4]
  77:.\main.c      ****    
  78:.\main.c      ****    for(i = 0;i <= FILTER_LENGTH_mavg2;i++)          // Run FIR filter for each received sample
 483              		.loc 1 78 0
 484 0028 364B     		ldr	r3, .L23+8
 485 002a 0022     		mov	r2, #0
 486 002c 1A80     		strh	r2, [r3]
 487 002e 30E0     		b	.L18
 488              	.L19:
  79:.\main.c      ****    {
  80:.\main.c      ****       y2_mavg += b2_mavg[i]*x2_mavg[i];              
 489              		.loc 1 80 0 discriminator 3
 490 0030 344B     		ldr	r3, .L23+8
 491 0032 1B88     		ldrh	r3, [r3]
 492 0034 1BB2     		sxth	r3, r3
 493 0036 344A     		ldr	r2, .L23+12
 494 0038 DB00     		lsl	r3, r3, #3
 495 003a D318     		add	r3, r2, r3
 496 003c 1968     		ldr	r1, [r3]
 497 003e 5A68     		ldr	r2, [r3, #4]
 498 0040 304B     		ldr	r3, .L23+8
 499 0042 1B88     		ldrh	r3, [r3]
 500 0044 1BB2     		sxth	r3, r3
 501 0046 2D48     		ldr	r0, .L23
 502 0048 DB00     		lsl	r3, r3, #3
 503 004a C318     		add	r3, r0, r3
 504 004c 5C68     		ldr	r4, [r3, #4]
 505 004e 1B68     		ldr	r3, [r3]
 506 0050 081C     		mov	r0, r1
 507 0052 111C     		mov	r1, r2
 508 0054 1A1C     		mov	r2, r3
 509 0056 231C     		mov	r3, r4
 510 0058 FFF7FEFF 		bl	__aeabi_dmul
 511 005c 031C     		mov	r3, r0
 512 005e 0C1C     		mov	r4, r1
 513 0060 191C     		mov	r1, r3
 514 0062 221C     		mov	r2, r4
 515 0064 264B     		ldr	r3, .L23+4
 516 0066 5C68     		ldr	r4, [r3, #4]
 517 0068 1B68     		ldr	r3, [r3]
 518 006a 081C     		mov	r0, r1
 519 006c 111C     		mov	r1, r2
 520 006e 1A1C     		mov	r2, r3
 521 0070 231C     		mov	r3, r4
 522 0072 FFF7FEFF 		bl	__aeabi_dadd
ARM GAS  C:\Users\LINETT~1\AppData\Local\Temp\ccb9UJpd.s 			page 12


 523 0076 031C     		mov	r3, r0
 524 0078 0C1C     		mov	r4, r1
 525 007a 214A     		ldr	r2, .L23+4
 526 007c 1360     		str	r3, [r2]
 527 007e 5460     		str	r4, [r2, #4]
  78:.\main.c      ****    {
 528              		.loc 1 78 0 discriminator 3
 529 0080 204B     		ldr	r3, .L23+8
 530 0082 1B88     		ldrh	r3, [r3]
 531 0084 9BB2     		uxth	r3, r3
 532 0086 9BB2     		uxth	r3, r3
 533 0088 0133     		add	r3, r3, #1
 534 008a 9BB2     		uxth	r3, r3
 535 008c 9AB2     		uxth	r2, r3
 536 008e 1D4B     		ldr	r3, .L23+8
 537 0090 1A80     		strh	r2, [r3]
 538              	.L18:
  78:.\main.c      ****    {
 539              		.loc 1 78 0 is_stmt 0 discriminator 1
 540 0092 1C4B     		ldr	r3, .L23+8
 541 0094 1B88     		ldrh	r3, [r3]
 542 0096 1BB2     		sxth	r3, r3
 543 0098 092B     		cmp	r3, #9
 544 009a C9DD     		ble	.L19
  81:.\main.c      ****    } 
  82:.\main.c      ****    
  83:.\main.c      ****    for(i = FILTER_LENGTH_mavg2-1;i >= 0;i--)        // Roll x array in order to hold old sample inp
 545              		.loc 1 83 0 is_stmt 1
 546 009c 194B     		ldr	r3, .L23+8
 547 009e 0822     		mov	r2, #8
 548 00a0 1A80     		strh	r2, [r3]
 549 00a2 19E0     		b	.L20
 550              	.L21:
  84:.\main.c      ****    {
  85:.\main.c      ****       x2_mavg[i+1] = x2_mavg[i];                     
 551              		.loc 1 85 0 discriminator 3
 552 00a4 174B     		ldr	r3, .L23+8
 553 00a6 1B88     		ldrh	r3, [r3]
 554 00a8 1BB2     		sxth	r3, r3
 555 00aa 5A1C     		add	r2, r3, #1
 556 00ac 154B     		ldr	r3, .L23+8
 557 00ae 1B88     		ldrh	r3, [r3]
 558 00b0 1BB2     		sxth	r3, r3
 559 00b2 1249     		ldr	r1, .L23
 560 00b4 DB00     		lsl	r3, r3, #3
 561 00b6 CB18     		add	r3, r1, r3
 562 00b8 5C68     		ldr	r4, [r3, #4]
 563 00ba 1B68     		ldr	r3, [r3]
 564 00bc 0F49     		ldr	r1, .L23
 565 00be D200     		lsl	r2, r2, #3
 566 00c0 8A18     		add	r2, r1, r2
 567 00c2 1360     		str	r3, [r2]
 568 00c4 5460     		str	r4, [r2, #4]
  83:.\main.c      ****    {
 569              		.loc 1 83 0 discriminator 3
 570 00c6 0F4B     		ldr	r3, .L23+8
 571 00c8 1B88     		ldrh	r3, [r3]
ARM GAS  C:\Users\LINETT~1\AppData\Local\Temp\ccb9UJpd.s 			page 13


 572 00ca 9BB2     		uxth	r3, r3
 573 00cc 9BB2     		uxth	r3, r3
 574 00ce 013B     		sub	r3, r3, #1
 575 00d0 9BB2     		uxth	r3, r3
 576 00d2 9AB2     		uxth	r2, r3
 577 00d4 0B4B     		ldr	r3, .L23+8
 578 00d6 1A80     		strh	r2, [r3]
 579              	.L20:
  83:.\main.c      ****    {
 580              		.loc 1 83 0 is_stmt 0 discriminator 1
 581 00d8 0A4B     		ldr	r3, .L23+8
 582 00da 1B88     		ldrh	r3, [r3]
 583 00dc 1BB2     		sxth	r3, r3
 584 00de 002B     		cmp	r3, #0
 585 00e0 E0DA     		bge	.L21
  86:.\main.c      ****    }
  87:.\main.c      ****       
  88:.\main.c      ****    return (signed int) y2_mavg;               
 586              		.loc 1 88 0 is_stmt 1
 587 00e2 074B     		ldr	r3, .L23+4
 588 00e4 5C68     		ldr	r4, [r3, #4]
 589 00e6 1B68     		ldr	r3, [r3]
 590 00e8 181C     		mov	r0, r3
 591 00ea 211C     		mov	r1, r4
 592 00ec FFF7FEFF 		bl	__aeabi_d2iz
 593 00f0 031C     		mov	r3, r0
  89:.\main.c      **** }
 594              		.loc 1 89 0
 595 00f2 181C     		mov	r0, r3
 596 00f4 BD46     		mov	sp, r7
 597 00f6 03B0     		add	sp, sp, #12
 598              		@ sp needed
 599 00f8 90BD     		pop	{r4, r7, pc}
 600              	.L24:
 601 00fa C046     		.align	2
 602              	.L23:
 603 00fc 00000000 		.word	x2_mavg
 604 0100 00000000 		.word	y2_mavg
 605 0104 00000000 		.word	i
 606 0108 00000000 		.word	b2_mavg
 607              		.cfi_endproc
 608              	.LFE39:
 609              		.size	mavg_filter2, .-mavg_filter2
 610              		.section	.text.low_pass_filter,"ax",%progbits
 611              		.align	2
 612              		.global	low_pass_filter
 613              		.code	16
 614              		.thumb_func
 615              		.type	low_pass_filter, %function
 616              	low_pass_filter:
 617              	.LFB40:
  90:.\main.c      **** 
  91:.\main.c      **** /***********************************Lavpas filter***********************************/
  92:.\main.c      **** 
  93:.\main.c      **** int low_pass_filter(int data)
  94:.\main.c      **** {
 618              		.loc 1 94 0
ARM GAS  C:\Users\LINETT~1\AppData\Local\Temp\ccb9UJpd.s 			page 14


 619              		.cfi_startproc
 620 0000 B0B5     		push	{r4, r5, r7, lr}
 621              		.cfi_def_cfa_offset 16
 622              		.cfi_offset 4, -16
 623              		.cfi_offset 5, -12
 624              		.cfi_offset 7, -8
 625              		.cfi_offset 14, -4
 626 0002 84B0     		sub	sp, sp, #16
 627              		.cfi_def_cfa_offset 32
 628 0004 00AF     		add	r7, sp, #0
 629              		.cfi_def_cfa_register 7
 630 0006 7860     		str	r0, [r7, #4]
  95:.\main.c      ****    int i;
  96:.\main.c      ****    x_low[0] =  (double) data;
 631              		.loc 1 96 0
 632 0008 7868     		ldr	r0, [r7, #4]
 633 000a FFF7FEFF 		bl	__aeabi_i2d
 634 000e 031C     		mov	r3, r0
 635 0010 0C1C     		mov	r4, r1
 636 0012 404A     		ldr	r2, .L33
 637 0014 1360     		str	r3, [r2]
 638 0016 5460     		str	r4, [r2, #4]
  97:.\main.c      ****    
  98:.\main.c      ****    y_low[0] = 0;
 639              		.loc 1 98 0
 640 0018 3F4A     		ldr	r2, .L33+4
 641 001a 0023     		mov	r3, #0
 642 001c 0024     		mov	r4, #0
 643 001e 1360     		str	r3, [r2]
 644 0020 5460     		str	r4, [r2, #4]
  99:.\main.c      ****   
 100:.\main.c      ****    for(i = 0;i <= FILTER_LENGTH_low;i++)                 // Run FIR filter for each received sample
 645              		.loc 1 100 0
 646 0022 0023     		mov	r3, #0
 647 0024 FB60     		str	r3, [r7, #12]
 648 0026 1EE0     		b	.L26
 649              	.L27:
 101:.\main.c      ****    {
 102:.\main.c      ****       y_low[0] += b_low[i]*x_low[i];
 650              		.loc 1 102 0 discriminator 3
 651 0028 3B4B     		ldr	r3, .L33+4
 652 002a 1C68     		ldr	r4, [r3]
 653 002c 5D68     		ldr	r5, [r3, #4]
 654 002e 3B4A     		ldr	r2, .L33+8
 655 0030 FB68     		ldr	r3, [r7, #12]
 656 0032 DB00     		lsl	r3, r3, #3
 657 0034 D318     		add	r3, r2, r3
 658 0036 1868     		ldr	r0, [r3]
 659 0038 5968     		ldr	r1, [r3, #4]
 660 003a 364A     		ldr	r2, .L33
 661 003c FB68     		ldr	r3, [r7, #12]
 662 003e DB00     		lsl	r3, r3, #3
 663 0040 D318     		add	r3, r2, r3
 664 0042 1A68     		ldr	r2, [r3]
 665 0044 5B68     		ldr	r3, [r3, #4]
 666 0046 FFF7FEFF 		bl	__aeabi_dmul
 667 004a 021C     		mov	r2, r0
ARM GAS  C:\Users\LINETT~1\AppData\Local\Temp\ccb9UJpd.s 			page 15


 668 004c 0B1C     		mov	r3, r1
 669 004e 201C     		mov	r0, r4
 670 0050 291C     		mov	r1, r5
 671 0052 FFF7FEFF 		bl	__aeabi_dadd
 672 0056 031C     		mov	r3, r0
 673 0058 0C1C     		mov	r4, r1
 674 005a 2F4A     		ldr	r2, .L33+4
 675 005c 1360     		str	r3, [r2]
 676 005e 5460     		str	r4, [r2, #4]
 100:.\main.c      ****    {
 677              		.loc 1 100 0 discriminator 3
 678 0060 FB68     		ldr	r3, [r7, #12]
 679 0062 0133     		add	r3, r3, #1
 680 0064 FB60     		str	r3, [r7, #12]
 681              	.L26:
 100:.\main.c      ****    {
 682              		.loc 1 100 0 is_stmt 0 discriminator 1
 683 0066 FB68     		ldr	r3, [r7, #12]
 684 0068 022B     		cmp	r3, #2
 685 006a DDDD     		ble	.L27
 103:.\main.c      ****    } 
 104:.\main.c      ****    
 105:.\main.c      ****    for(i =1;i <= FILTER_LENGTH_low;i++)                 // Roll x array in order to hold old sample
 686              		.loc 1 105 0 is_stmt 1
 687 006c 0123     		mov	r3, #1
 688 006e FB60     		str	r3, [r7, #12]
 689 0070 1EE0     		b	.L28
 690              	.L29:
 106:.\main.c      ****    {
 107:.\main.c      ****       y_low[0] -= a_low[i]*y_low[i];
 691              		.loc 1 107 0 discriminator 3
 692 0072 294B     		ldr	r3, .L33+4
 693 0074 1C68     		ldr	r4, [r3]
 694 0076 5D68     		ldr	r5, [r3, #4]
 695 0078 294A     		ldr	r2, .L33+12
 696 007a FB68     		ldr	r3, [r7, #12]
 697 007c DB00     		lsl	r3, r3, #3
 698 007e D318     		add	r3, r2, r3
 699 0080 1868     		ldr	r0, [r3]
 700 0082 5968     		ldr	r1, [r3, #4]
 701 0084 244A     		ldr	r2, .L33+4
 702 0086 FB68     		ldr	r3, [r7, #12]
 703 0088 DB00     		lsl	r3, r3, #3
 704 008a D318     		add	r3, r2, r3
 705 008c 1A68     		ldr	r2, [r3]
 706 008e 5B68     		ldr	r3, [r3, #4]
 707 0090 FFF7FEFF 		bl	__aeabi_dmul
 708 0094 021C     		mov	r2, r0
 709 0096 0B1C     		mov	r3, r1
 710 0098 201C     		mov	r0, r4
 711 009a 291C     		mov	r1, r5
 712 009c FFF7FEFF 		bl	__aeabi_dsub
 713 00a0 031C     		mov	r3, r0
 714 00a2 0C1C     		mov	r4, r1
 715 00a4 1C4A     		ldr	r2, .L33+4
 716 00a6 1360     		str	r3, [r2]
 717 00a8 5460     		str	r4, [r2, #4]
ARM GAS  C:\Users\LINETT~1\AppData\Local\Temp\ccb9UJpd.s 			page 16


 105:.\main.c      ****    {
 718              		.loc 1 105 0 discriminator 3
 719 00aa FB68     		ldr	r3, [r7, #12]
 720 00ac 0133     		add	r3, r3, #1
 721 00ae FB60     		str	r3, [r7, #12]
 722              	.L28:
 105:.\main.c      ****    {
 723              		.loc 1 105 0 is_stmt 0 discriminator 1
 724 00b0 FB68     		ldr	r3, [r7, #12]
 725 00b2 022B     		cmp	r3, #2
 726 00b4 DDDD     		ble	.L29
 108:.\main.c      ****    }
 109:.\main.c      **** 
 110:.\main.c      ****    for(i = FILTER_LENGTH_low-1;i >= 0;i--)
 727              		.loc 1 110 0 is_stmt 1
 728 00b6 0123     		mov	r3, #1
 729 00b8 FB60     		str	r3, [r7, #12]
 730 00ba 1CE0     		b	.L30
 731              	.L31:
 111:.\main.c      ****    {
 112:.\main.c      ****       x_low[i+1]=x_low[i];
 732              		.loc 1 112 0 discriminator 3
 733 00bc FB68     		ldr	r3, [r7, #12]
 734 00be 5A1C     		add	r2, r3, #1
 735 00c0 1449     		ldr	r1, .L33
 736 00c2 FB68     		ldr	r3, [r7, #12]
 737 00c4 DB00     		lsl	r3, r3, #3
 738 00c6 CB18     		add	r3, r1, r3
 739 00c8 5C68     		ldr	r4, [r3, #4]
 740 00ca 1B68     		ldr	r3, [r3]
 741 00cc 1149     		ldr	r1, .L33
 742 00ce D200     		lsl	r2, r2, #3
 743 00d0 8A18     		add	r2, r1, r2
 744 00d2 1360     		str	r3, [r2]
 745 00d4 5460     		str	r4, [r2, #4]
 113:.\main.c      ****       y_low[i+1]=y_low[i];
 746              		.loc 1 113 0 discriminator 3
 747 00d6 FB68     		ldr	r3, [r7, #12]
 748 00d8 5A1C     		add	r2, r3, #1
 749 00da 0F49     		ldr	r1, .L33+4
 750 00dc FB68     		ldr	r3, [r7, #12]
 751 00de DB00     		lsl	r3, r3, #3
 752 00e0 CB18     		add	r3, r1, r3
 753 00e2 5C68     		ldr	r4, [r3, #4]
 754 00e4 1B68     		ldr	r3, [r3]
 755 00e6 0C49     		ldr	r1, .L33+4
 756 00e8 D200     		lsl	r2, r2, #3
 757 00ea 8A18     		add	r2, r1, r2
 758 00ec 1360     		str	r3, [r2]
 759 00ee 5460     		str	r4, [r2, #4]
 110:.\main.c      ****    {
 760              		.loc 1 110 0 discriminator 3
 761 00f0 FB68     		ldr	r3, [r7, #12]
 762 00f2 013B     		sub	r3, r3, #1
 763 00f4 FB60     		str	r3, [r7, #12]
 764              	.L30:
 110:.\main.c      ****    {
ARM GAS  C:\Users\LINETT~1\AppData\Local\Temp\ccb9UJpd.s 			page 17


 765              		.loc 1 110 0 is_stmt 0 discriminator 1
 766 00f6 FB68     		ldr	r3, [r7, #12]
 767 00f8 002B     		cmp	r3, #0
 768 00fa DFDA     		bge	.L31
 114:.\main.c      ****    }
 115:.\main.c      **** 
 116:.\main.c      ****     return floor_and_convert(y_low[0]);
 769              		.loc 1 116 0 is_stmt 1
 770 00fc 064B     		ldr	r3, .L33+4
 771 00fe 5C68     		ldr	r4, [r3, #4]
 772 0100 1B68     		ldr	r3, [r3]
 773 0102 181C     		mov	r0, r3
 774 0104 211C     		mov	r1, r4
 775 0106 FFF7FEFF 		bl	floor_and_convert
 776 010a 031C     		mov	r3, r0
 117:.\main.c      **** }
 777              		.loc 1 117 0
 778 010c 181C     		mov	r0, r3
 779 010e BD46     		mov	sp, r7
 780 0110 04B0     		add	sp, sp, #16
 781              		@ sp needed
 782 0112 B0BD     		pop	{r4, r5, r7, pc}
 783              	.L34:
 784              		.align	2
 785              	.L33:
 786 0114 00000000 		.word	x_low
 787 0118 00000000 		.word	y_low
 788 011c 00000000 		.word	b_low
 789 0120 00000000 		.word	a_low
 790              		.cfi_endproc
 791              	.LFE40:
 792              		.size	low_pass_filter, .-low_pass_filter
 793              		.global	__aeabi_idiv
 794              		.section	.text.roed_grader,"ax",%progbits
 795              		.align	2
 796              		.global	roed_grader
 797              		.code	16
 798              		.thumb_func
 799              		.type	roed_grader, %function
 800              	roed_grader:
 801              	.LFB41:
 118:.\main.c      **** 
 119:.\main.c      **** 
 120:.\main.c      **** /***********************************Omregning til grader for rød accelerometer *******************
 121:.\main.c      **** int roed_grader(int data)
 122:.\main.c      **** {
 802              		.loc 1 122 0
 803              		.cfi_startproc
 804 0000 80B5     		push	{r7, lr}
 805              		.cfi_def_cfa_offset 8
 806              		.cfi_offset 7, -8
 807              		.cfi_offset 14, -4
 808 0002 82B0     		sub	sp, sp, #8
 809              		.cfi_def_cfa_offset 16
 810 0004 00AF     		add	r7, sp, #0
 811              		.cfi_def_cfa_register 7
 812 0006 7860     		str	r0, [r7, #4]
ARM GAS  C:\Users\LINETT~1\AppData\Local\Temp\ccb9UJpd.s 			page 18


 123:.\main.c      ****     if ((data >= -199) && (data <= -195))
 813              		.loc 1 123 0
 814 0008 7B68     		ldr	r3, [r7, #4]
 815 000a C733     		add	r3, r3, #199
 816 000c 10DB     		blt	.L36
 817              		.loc 1 123 0 is_stmt 0 discriminator 1
 818 000e 7B68     		ldr	r3, [r7, #4]
 819 0010 C233     		add	r3, r3, #194
 820 0012 0DDA     		bge	.L36
 124:.\main.c      ****     {
 125:.\main.c      ****         data=(0+(10-0)*(data-(-195))/(-199-(-195)));
 821              		.loc 1 125 0 is_stmt 1
 822 0014 7B68     		ldr	r3, [r7, #4]
 823 0016 C333     		add	r3, r3, #195
 824 0018 1A1C     		mov	r2, r3
 825 001a 131C     		mov	r3, r2
 826 001c 9B00     		lsl	r3, r3, #2
 827 001e 9B18     		add	r3, r3, r2
 828 0020 5B00     		lsl	r3, r3, #1
 829 0022 00D5     		bpl	.L37
 830 0024 0333     		add	r3, r3, #3
 831              	.L37:
 832 0026 9B10     		asr	r3, r3, #2
 833 0028 5B42     		neg	r3, r3
 834 002a 7B60     		str	r3, [r7, #4]
 126:.\main.c      ****         return data; 
 835              		.loc 1 126 0
 836 002c 7B68     		ldr	r3, [r7, #4]
 837 002e 71E0     		b	.L38
 838              	.L36:
 127:.\main.c      ****     }
 128:.\main.c      ****     else if ((data >= -195) && (data <= -169))
 839              		.loc 1 128 0
 840 0030 7B68     		ldr	r3, [r7, #4]
 841 0032 C333     		add	r3, r3, #195
 842 0034 12DB     		blt	.L39
 843              		.loc 1 128 0 is_stmt 0 discriminator 1
 844 0036 7B68     		ldr	r3, [r7, #4]
 845 0038 A833     		add	r3, r3, #168
 846 003a 0FDA     		bge	.L39
 129:.\main.c      ****     {
 130:.\main.c      ****         data=(10+(30-10)*(data-(-195))/(-169-(-195)));
 847              		.loc 1 130 0 is_stmt 1
 848 003c 7B68     		ldr	r3, [r7, #4]
 849 003e C333     		add	r3, r3, #195
 850 0040 1A1C     		mov	r2, r3
 851 0042 131C     		mov	r3, r2
 852 0044 9B00     		lsl	r3, r3, #2
 853 0046 9B18     		add	r3, r3, r2
 854 0048 9B00     		lsl	r3, r3, #2
 855 004a 181C     		mov	r0, r3
 856 004c 1A21     		mov	r1, #26
 857 004e FFF7FEFF 		bl	__aeabi_idiv
 858 0052 031C     		mov	r3, r0
 859 0054 0A33     		add	r3, r3, #10
 860 0056 7B60     		str	r3, [r7, #4]
 131:.\main.c      ****         return data;
ARM GAS  C:\Users\LINETT~1\AppData\Local\Temp\ccb9UJpd.s 			page 19


 861              		.loc 1 131 0
 862 0058 7B68     		ldr	r3, [r7, #4]
 863 005a 5BE0     		b	.L38
 864              	.L39:
 132:.\main.c      ****     }
 133:.\main.c      ****     else if ((data >= -169) && (data <= -126))
 865              		.loc 1 133 0
 866 005c 7B68     		ldr	r3, [r7, #4]
 867 005e A933     		add	r3, r3, #169
 868 0060 12DB     		blt	.L40
 869              		.loc 1 133 0 is_stmt 0 discriminator 1
 870 0062 7B68     		ldr	r3, [r7, #4]
 871 0064 7D33     		add	r3, r3, #125
 872 0066 0FDA     		bge	.L40
 134:.\main.c      ****     {
 135:.\main.c      ****         data=(30+(50-30)*(data-(-169))/(-126-(-169)));
 873              		.loc 1 135 0 is_stmt 1
 874 0068 7B68     		ldr	r3, [r7, #4]
 875 006a A933     		add	r3, r3, #169
 876 006c 1A1C     		mov	r2, r3
 877 006e 131C     		mov	r3, r2
 878 0070 9B00     		lsl	r3, r3, #2
 879 0072 9B18     		add	r3, r3, r2
 880 0074 9B00     		lsl	r3, r3, #2
 881 0076 181C     		mov	r0, r3
 882 0078 2B21     		mov	r1, #43
 883 007a FFF7FEFF 		bl	__aeabi_idiv
 884 007e 031C     		mov	r3, r0
 885 0080 1E33     		add	r3, r3, #30
 886 0082 7B60     		str	r3, [r7, #4]
 136:.\main.c      ****         return data;
 887              		.loc 1 136 0
 888 0084 7B68     		ldr	r3, [r7, #4]
 889 0086 45E0     		b	.L38
 890              	.L40:
 137:.\main.c      ****     }
 138:.\main.c      ****     else if ((data >= -126) && (data <= -64))
 891              		.loc 1 138 0
 892 0088 7B68     		ldr	r3, [r7, #4]
 893 008a 7E33     		add	r3, r3, #126
 894 008c 12DB     		blt	.L41
 895              		.loc 1 138 0 is_stmt 0 discriminator 1
 896 008e 7B68     		ldr	r3, [r7, #4]
 897 0090 3F33     		add	r3, r3, #63
 898 0092 0FDA     		bge	.L41
 139:.\main.c      ****     {
 140:.\main.c      ****         data=(50+(70-50)*(data-(-126))/(-64-(-126)));
 899              		.loc 1 140 0 is_stmt 1
 900 0094 7B68     		ldr	r3, [r7, #4]
 901 0096 7E33     		add	r3, r3, #126
 902 0098 1A1C     		mov	r2, r3
 903 009a 131C     		mov	r3, r2
 904 009c 9B00     		lsl	r3, r3, #2
 905 009e 9B18     		add	r3, r3, r2
 906 00a0 9B00     		lsl	r3, r3, #2
 907 00a2 181C     		mov	r0, r3
 908 00a4 3E21     		mov	r1, #62
ARM GAS  C:\Users\LINETT~1\AppData\Local\Temp\ccb9UJpd.s 			page 20


 909 00a6 FFF7FEFF 		bl	__aeabi_idiv
 910 00aa 031C     		mov	r3, r0
 911 00ac 3233     		add	r3, r3, #50
 912 00ae 7B60     		str	r3, [r7, #4]
 141:.\main.c      ****         return data;
 913              		.loc 1 141 0
 914 00b0 7B68     		ldr	r3, [r7, #4]
 915 00b2 2FE0     		b	.L38
 916              	.L41:
 142:.\main.c      ****     }
 143:.\main.c      ****     else if ((data >= -64) && (data <= -29))
 917              		.loc 1 143 0
 918 00b4 7B68     		ldr	r3, [r7, #4]
 919 00b6 4033     		add	r3, r3, #64
 920 00b8 12DB     		blt	.L42
 921              		.loc 1 143 0 is_stmt 0 discriminator 1
 922 00ba 7B68     		ldr	r3, [r7, #4]
 923 00bc 1C33     		add	r3, r3, #28
 924 00be 0FDA     		bge	.L42
 144:.\main.c      ****     {
 145:.\main.c      ****         data=(70+(80-70)*(data-(-64))/(-29-(-64)));
 925              		.loc 1 145 0 is_stmt 1
 926 00c0 7B68     		ldr	r3, [r7, #4]
 927 00c2 4033     		add	r3, r3, #64
 928 00c4 1A1C     		mov	r2, r3
 929 00c6 131C     		mov	r3, r2
 930 00c8 9B00     		lsl	r3, r3, #2
 931 00ca 9B18     		add	r3, r3, r2
 932 00cc 5B00     		lsl	r3, r3, #1
 933 00ce 181C     		mov	r0, r3
 934 00d0 2321     		mov	r1, #35
 935 00d2 FFF7FEFF 		bl	__aeabi_idiv
 936 00d6 031C     		mov	r3, r0
 937 00d8 4633     		add	r3, r3, #70
 938 00da 7B60     		str	r3, [r7, #4]
 146:.\main.c      ****         return data;
 939              		.loc 1 146 0
 940 00dc 7B68     		ldr	r3, [r7, #4]
 941 00de 19E0     		b	.L38
 942              	.L42:
 147:.\main.c      ****     }
 148:.\main.c      ****     else if ((data >= -29) && (data <= 4))
 943              		.loc 1 148 0
 944 00e0 7B68     		ldr	r3, [r7, #4]
 945 00e2 1D33     		add	r3, r3, #29
 946 00e4 12DB     		blt	.L43
 947              		.loc 1 148 0 is_stmt 0 discriminator 1
 948 00e6 7B68     		ldr	r3, [r7, #4]
 949 00e8 042B     		cmp	r3, #4
 950 00ea 0FDC     		bgt	.L43
 149:.\main.c      ****     {
 150:.\main.c      ****         data=(80+(90-80)*(data-(-29))/(4-(-29)));
 951              		.loc 1 150 0 is_stmt 1
 952 00ec 7B68     		ldr	r3, [r7, #4]
 953 00ee 1D33     		add	r3, r3, #29
 954 00f0 1A1C     		mov	r2, r3
 955 00f2 131C     		mov	r3, r2
ARM GAS  C:\Users\LINETT~1\AppData\Local\Temp\ccb9UJpd.s 			page 21


 956 00f4 9B00     		lsl	r3, r3, #2
 957 00f6 9B18     		add	r3, r3, r2
 958 00f8 5B00     		lsl	r3, r3, #1
 959 00fa 181C     		mov	r0, r3
 960 00fc 2121     		mov	r1, #33
 961 00fe FFF7FEFF 		bl	__aeabi_idiv
 962 0102 031C     		mov	r3, r0
 963 0104 5033     		add	r3, r3, #80
 964 0106 7B60     		str	r3, [r7, #4]
 151:.\main.c      ****         return data;
 965              		.loc 1 151 0
 966 0108 7B68     		ldr	r3, [r7, #4]
 967 010a 03E0     		b	.L38
 968              	.L43:
 152:.\main.c      ****     }
 153:.\main.c      ****     else
 154:.\main.c      ****     {
 155:.\main.c      ****         data = -200;
 969              		.loc 1 155 0
 970 010c C823     		mov	r3, #200
 971 010e 5B42     		neg	r3, r3
 972 0110 7B60     		str	r3, [r7, #4]
 156:.\main.c      ****         return data;
 973              		.loc 1 156 0
 974 0112 7B68     		ldr	r3, [r7, #4]
 975              	.L38:
 157:.\main.c      ****     }
 158:.\main.c      **** }
 976              		.loc 1 158 0
 977 0114 181C     		mov	r0, r3
 978 0116 BD46     		mov	sp, r7
 979 0118 02B0     		add	sp, sp, #8
 980              		@ sp needed
 981 011a 80BD     		pop	{r7, pc}
 982              		.cfi_endproc
 983              	.LFE41:
 984              		.size	roed_grader, .-roed_grader
 985              		.section	.text.groen_grader,"ax",%progbits
 986              		.align	2
 987              		.global	groen_grader
 988              		.code	16
 989              		.thumb_func
 990              		.type	groen_grader, %function
 991              	groen_grader:
 992              	.LFB42:
 159:.\main.c      **** 
 160:.\main.c      **** /***********************************Omregning til grader for grøn accelerometer*******************
 161:.\main.c      **** int groen_grader(int data)
 162:.\main.c      **** {
 993              		.loc 1 162 0
 994              		.cfi_startproc
 995 0000 80B5     		push	{r7, lr}
 996              		.cfi_def_cfa_offset 8
 997              		.cfi_offset 7, -8
 998              		.cfi_offset 14, -4
 999 0002 82B0     		sub	sp, sp, #8
 1000              		.cfi_def_cfa_offset 16
ARM GAS  C:\Users\LINETT~1\AppData\Local\Temp\ccb9UJpd.s 			page 22


 1001 0004 00AF     		add	r7, sp, #0
 1002              		.cfi_def_cfa_register 7
 1003 0006 7860     		str	r0, [r7, #4]
 163:.\main.c      ****     if ((data >= -186) && (data <= -180))
 1004              		.loc 1 163 0
 1005 0008 7B68     		ldr	r3, [r7, #4]
 1006 000a BA33     		add	r3, r3, #186
 1007 000c 11DB     		blt	.L45
 1008              		.loc 1 163 0 is_stmt 0 discriminator 1
 1009 000e 7B68     		ldr	r3, [r7, #4]
 1010 0010 B333     		add	r3, r3, #179
 1011 0012 0EDA     		bge	.L45
 164:.\main.c      ****     {
 165:.\main.c      ****         data=(0+(10-0)*(data-(-186))/(-180-(-186)));
 1012              		.loc 1 165 0 is_stmt 1
 1013 0014 7B68     		ldr	r3, [r7, #4]
 1014 0016 BA33     		add	r3, r3, #186
 1015 0018 1A1C     		mov	r2, r3
 1016 001a 131C     		mov	r3, r2
 1017 001c 9B00     		lsl	r3, r3, #2
 1018 001e 9B18     		add	r3, r3, r2
 1019 0020 5B00     		lsl	r3, r3, #1
 1020 0022 181C     		mov	r0, r3
 1021 0024 0621     		mov	r1, #6
 1022 0026 FFF7FEFF 		bl	__aeabi_idiv
 1023 002a 031C     		mov	r3, r0
 1024 002c 7B60     		str	r3, [r7, #4]
 166:.\main.c      ****         return data; 
 1025              		.loc 1 166 0
 1026 002e 7B68     		ldr	r3, [r7, #4]
 1027 0030 71E0     		b	.L46
 1028              	.L45:
 167:.\main.c      ****     }
 168:.\main.c      ****     else if ((data >= -180) && (data <= -158))
 1029              		.loc 1 168 0
 1030 0032 7B68     		ldr	r3, [r7, #4]
 1031 0034 B433     		add	r3, r3, #180
 1032 0036 12DB     		blt	.L47
 1033              		.loc 1 168 0 is_stmt 0 discriminator 1
 1034 0038 7B68     		ldr	r3, [r7, #4]
 1035 003a 9D33     		add	r3, r3, #157
 1036 003c 0FDA     		bge	.L47
 169:.\main.c      ****     {
 170:.\main.c      ****         data=(10+(30-10)*(data-(-180))/(-158-(-180)));
 1037              		.loc 1 170 0 is_stmt 1
 1038 003e 7B68     		ldr	r3, [r7, #4]
 1039 0040 B433     		add	r3, r3, #180
 1040 0042 1A1C     		mov	r2, r3
 1041 0044 131C     		mov	r3, r2
 1042 0046 9B00     		lsl	r3, r3, #2
 1043 0048 9B18     		add	r3, r3, r2
 1044 004a 9B00     		lsl	r3, r3, #2
 1045 004c 181C     		mov	r0, r3
 1046 004e 1621     		mov	r1, #22
 1047 0050 FFF7FEFF 		bl	__aeabi_idiv
 1048 0054 031C     		mov	r3, r0
 1049 0056 0A33     		add	r3, r3, #10
ARM GAS  C:\Users\LINETT~1\AppData\Local\Temp\ccb9UJpd.s 			page 23


 1050 0058 7B60     		str	r3, [r7, #4]
 171:.\main.c      ****         return data;
 1051              		.loc 1 171 0
 1052 005a 7B68     		ldr	r3, [r7, #4]
 1053 005c 5BE0     		b	.L46
 1054              	.L47:
 172:.\main.c      ****     }
 173:.\main.c      ****     else if ((data >= -158) && (data <= -117))
 1055              		.loc 1 173 0
 1056 005e 7B68     		ldr	r3, [r7, #4]
 1057 0060 9E33     		add	r3, r3, #158
 1058 0062 12DB     		blt	.L48
 1059              		.loc 1 173 0 is_stmt 0 discriminator 1
 1060 0064 7B68     		ldr	r3, [r7, #4]
 1061 0066 7433     		add	r3, r3, #116
 1062 0068 0FDA     		bge	.L48
 174:.\main.c      ****     {
 175:.\main.c      ****         data=(30+(50-30)*(data-(-158))/(-117-(-158)));
 1063              		.loc 1 175 0 is_stmt 1
 1064 006a 7B68     		ldr	r3, [r7, #4]
 1065 006c 9E33     		add	r3, r3, #158
 1066 006e 1A1C     		mov	r2, r3
 1067 0070 131C     		mov	r3, r2
 1068 0072 9B00     		lsl	r3, r3, #2
 1069 0074 9B18     		add	r3, r3, r2
 1070 0076 9B00     		lsl	r3, r3, #2
 1071 0078 181C     		mov	r0, r3
 1072 007a 2921     		mov	r1, #41
 1073 007c FFF7FEFF 		bl	__aeabi_idiv
 1074 0080 031C     		mov	r3, r0
 1075 0082 1E33     		add	r3, r3, #30
 1076 0084 7B60     		str	r3, [r7, #4]
 176:.\main.c      ****         return data;
 1077              		.loc 1 176 0
 1078 0086 7B68     		ldr	r3, [r7, #4]
 1079 0088 45E0     		b	.L46
 1080              	.L48:
 177:.\main.c      ****     }
 178:.\main.c      ****     else if ((data >= -117) && (data <= -58))
 1081              		.loc 1 178 0
 1082 008a 7B68     		ldr	r3, [r7, #4]
 1083 008c 7533     		add	r3, r3, #117
 1084 008e 12DB     		blt	.L49
 1085              		.loc 1 178 0 is_stmt 0 discriminator 1
 1086 0090 7B68     		ldr	r3, [r7, #4]
 1087 0092 3933     		add	r3, r3, #57
 1088 0094 0FDA     		bge	.L49
 179:.\main.c      ****     {
 180:.\main.c      ****         data=(50+(70-50)*(data-(-117))/(-58-(-117)));
 1089              		.loc 1 180 0 is_stmt 1
 1090 0096 7B68     		ldr	r3, [r7, #4]
 1091 0098 7533     		add	r3, r3, #117
 1092 009a 1A1C     		mov	r2, r3
 1093 009c 131C     		mov	r3, r2
 1094 009e 9B00     		lsl	r3, r3, #2
 1095 00a0 9B18     		add	r3, r3, r2
 1096 00a2 9B00     		lsl	r3, r3, #2
ARM GAS  C:\Users\LINETT~1\AppData\Local\Temp\ccb9UJpd.s 			page 24


 1097 00a4 181C     		mov	r0, r3
 1098 00a6 3B21     		mov	r1, #59
 1099 00a8 FFF7FEFF 		bl	__aeabi_idiv
 1100 00ac 031C     		mov	r3, r0
 1101 00ae 3233     		add	r3, r3, #50
 1102 00b0 7B60     		str	r3, [r7, #4]
 181:.\main.c      ****         return data;
 1103              		.loc 1 181 0
 1104 00b2 7B68     		ldr	r3, [r7, #4]
 1105 00b4 2FE0     		b	.L46
 1106              	.L49:
 182:.\main.c      ****     }
 183:.\main.c      ****     else if ((data >= -58) && (data <= -20))
 1107              		.loc 1 183 0
 1108 00b6 7B68     		ldr	r3, [r7, #4]
 1109 00b8 3A33     		add	r3, r3, #58
 1110 00ba 12DB     		blt	.L50
 1111              		.loc 1 183 0 is_stmt 0 discriminator 1
 1112 00bc 7B68     		ldr	r3, [r7, #4]
 1113 00be 1333     		add	r3, r3, #19
 1114 00c0 0FDA     		bge	.L50
 184:.\main.c      ****     {
 185:.\main.c      ****         data=(70+(80-70)*(data-(-58))/(-20-(-58)));
 1115              		.loc 1 185 0 is_stmt 1
 1116 00c2 7B68     		ldr	r3, [r7, #4]
 1117 00c4 3A33     		add	r3, r3, #58
 1118 00c6 1A1C     		mov	r2, r3
 1119 00c8 131C     		mov	r3, r2
 1120 00ca 9B00     		lsl	r3, r3, #2
 1121 00cc 9B18     		add	r3, r3, r2
 1122 00ce 5B00     		lsl	r3, r3, #1
 1123 00d0 181C     		mov	r0, r3
 1124 00d2 2621     		mov	r1, #38
 1125 00d4 FFF7FEFF 		bl	__aeabi_idiv
 1126 00d8 031C     		mov	r3, r0
 1127 00da 4633     		add	r3, r3, #70
 1128 00dc 7B60     		str	r3, [r7, #4]
 186:.\main.c      ****         return data;
 1129              		.loc 1 186 0
 1130 00de 7B68     		ldr	r3, [r7, #4]
 1131 00e0 19E0     		b	.L46
 1132              	.L50:
 187:.\main.c      ****     }
 188:.\main.c      ****     else if ((data >= -20) && (data <=16))
 1133              		.loc 1 188 0
 1134 00e2 7B68     		ldr	r3, [r7, #4]
 1135 00e4 1433     		add	r3, r3, #20
 1136 00e6 12DB     		blt	.L51
 1137              		.loc 1 188 0 is_stmt 0 discriminator 1
 1138 00e8 7B68     		ldr	r3, [r7, #4]
 1139 00ea 102B     		cmp	r3, #16
 1140 00ec 0FDC     		bgt	.L51
 189:.\main.c      ****     {
 190:.\main.c      ****         data=(80+(90-80)*(data-(-20))/(16-(-20)));
 1141              		.loc 1 190 0 is_stmt 1
 1142 00ee 7B68     		ldr	r3, [r7, #4]
 1143 00f0 1433     		add	r3, r3, #20
ARM GAS  C:\Users\LINETT~1\AppData\Local\Temp\ccb9UJpd.s 			page 25


 1144 00f2 1A1C     		mov	r2, r3
 1145 00f4 131C     		mov	r3, r2
 1146 00f6 9B00     		lsl	r3, r3, #2
 1147 00f8 9B18     		add	r3, r3, r2
 1148 00fa 5B00     		lsl	r3, r3, #1
 1149 00fc 181C     		mov	r0, r3
 1150 00fe 2421     		mov	r1, #36
 1151 0100 FFF7FEFF 		bl	__aeabi_idiv
 1152 0104 031C     		mov	r3, r0
 1153 0106 5033     		add	r3, r3, #80
 1154 0108 7B60     		str	r3, [r7, #4]
 191:.\main.c      ****         return data;
 1155              		.loc 1 191 0
 1156 010a 7B68     		ldr	r3, [r7, #4]
 1157 010c 03E0     		b	.L46
 1158              	.L51:
 192:.\main.c      ****     }
 193:.\main.c      ****     else
 194:.\main.c      ****     {
 195:.\main.c      ****         data = -200;
 1159              		.loc 1 195 0
 1160 010e C823     		mov	r3, #200
 1161 0110 5B42     		neg	r3, r3
 1162 0112 7B60     		str	r3, [r7, #4]
 196:.\main.c      ****         return data;
 1163              		.loc 1 196 0
 1164 0114 7B68     		ldr	r3, [r7, #4]
 1165              	.L46:
 197:.\main.c      ****     }
 198:.\main.c      **** }
 1166              		.loc 1 198 0
 1167 0116 181C     		mov	r0, r3
 1168 0118 BD46     		mov	sp, r7
 1169 011a 02B0     		add	sp, sp, #8
 1170              		@ sp needed
 1171 011c 80BD     		pop	{r7, pc}
 1172              		.cfi_endproc
 1173              	.LFE42:
 1174              		.size	groen_grader, .-groen_grader
 1175              		.global	__aeabi_ddiv
 1176 011e C046     		.section	.text.differentiator,"ax",%progbits
 1177              		.align	2
 1178              		.global	differentiator
 1179              		.code	16
 1180              		.thumb_func
 1181              		.type	differentiator, %function
 1182              	differentiator:
 1183              	.LFB43:
 199:.\main.c      **** 
 200:.\main.c      **** /***********************************Differentiator***********************************/
 201:.\main.c      **** 
 202:.\main.c      **** signed int differentiator(signed int new)
 203:.\main.c      **** {
 1184              		.loc 1 203 0
 1185              		.cfi_startproc
 1186 0000 90B5     		push	{r4, r7, lr}
 1187              		.cfi_def_cfa_offset 12
ARM GAS  C:\Users\LINETT~1\AppData\Local\Temp\ccb9UJpd.s 			page 26


 1188              		.cfi_offset 4, -12
 1189              		.cfi_offset 7, -8
 1190              		.cfi_offset 14, -4
 1191 0002 83B0     		sub	sp, sp, #12
 1192              		.cfi_def_cfa_offset 24
 1193 0004 00AF     		add	r7, sp, #0
 1194              		.cfi_def_cfa_register 7
 1195 0006 7860     		str	r0, [r7, #4]
 204:.\main.c      ****    diff = (new - old)/0.01;
 1196              		.loc 1 204 0
 1197 0008 224B     		ldr	r3, .L56
 1198 000a 1B88     		ldrh	r3, [r3]
 1199 000c 1BB2     		sxth	r3, r3
 1200 000e 7A68     		ldr	r2, [r7, #4]
 1201 0010 D31A     		sub	r3, r2, r3
 1202 0012 181C     		mov	r0, r3
 1203 0014 FFF7FEFF 		bl	__aeabi_i2d
 1204 0018 031C     		mov	r3, r0
 1205 001a 0C1C     		mov	r4, r1
 1206 001c 181C     		mov	r0, r3
 1207 001e 211C     		mov	r1, r4
 1208 0020 1D4A     		ldr	r2, .L56+4
 1209 0022 1E4B     		ldr	r3, .L56+8
 1210 0024 FFF7FEFF 		bl	__aeabi_ddiv
 1211 0028 031C     		mov	r3, r0
 1212 002a 0C1C     		mov	r4, r1
 1213 002c 181C     		mov	r0, r3
 1214 002e 211C     		mov	r1, r4
 1215 0030 FFF7FEFF 		bl	__aeabi_d2iz
 1216 0034 031C     		mov	r3, r0
 1217 0036 9AB2     		uxth	r2, r3
 1218 0038 194B     		ldr	r3, .L56+12
 1219 003a 1A80     		strh	r2, [r3]
 205:.\main.c      ****    old = new;
 1220              		.loc 1 205 0
 1221 003c 7B68     		ldr	r3, [r7, #4]
 1222 003e 9AB2     		uxth	r2, r3
 1223 0040 144B     		ldr	r3, .L56
 1224 0042 1A80     		strh	r2, [r3]
 206:.\main.c      **** 
 207:.\main.c      ****     if(diff > 1)        //Stigende 
 1225              		.loc 1 207 0
 1226 0044 164B     		ldr	r3, .L56+12
 1227 0046 1B88     		ldrh	r3, [r3]
 1228 0048 1BB2     		sxth	r3, r3
 1229 004a 012B     		cmp	r3, #1
 1230 004c 0ADD     		ble	.L53
 208:.\main.c      ****     {
 209:.\main.c      ****         diff = 10;
 1231              		.loc 1 209 0
 1232 004e 144B     		ldr	r3, .L56+12
 1233 0050 0A22     		mov	r2, #10
 1234 0052 1A80     		strh	r2, [r3]
 210:.\main.c      ****         diff2 = diff;
 1235              		.loc 1 210 0
 1236 0054 124B     		ldr	r3, .L56+12
 1237 0056 1A88     		ldrh	r2, [r3]
ARM GAS  C:\Users\LINETT~1\AppData\Local\Temp\ccb9UJpd.s 			page 27


 1238 0058 124B     		ldr	r3, .L56+16
 1239 005a 1A80     		strh	r2, [r3]
 211:.\main.c      ****         return diff;
 1240              		.loc 1 211 0
 1241 005c 104B     		ldr	r3, .L56+12
 1242 005e 1B88     		ldrh	r3, [r3]
 1243 0060 1BB2     		sxth	r3, r3
 1244 0062 12E0     		b	.L54
 1245              	.L53:
 212:.\main.c      ****     }
 213:.\main.c      ****     
 214:.\main.c      ****     else if (diff == 0) //Ens
 1246              		.loc 1 214 0
 1247 0064 0E4B     		ldr	r3, .L56+12
 1248 0066 1B88     		ldrh	r3, [r3]
 1249 0068 002B     		cmp	r3, #0
 1250 006a 03D1     		bne	.L55
 215:.\main.c      ****     {
 216:.\main.c      ****         return diff2;
 1251              		.loc 1 216 0
 1252 006c 0D4B     		ldr	r3, .L56+16
 1253 006e 1B88     		ldrh	r3, [r3]
 1254 0070 1BB2     		sxth	r3, r3
 1255 0072 0AE0     		b	.L54
 1256              	.L55:
 217:.\main.c      ****     }
 218:.\main.c      ****     
 219:.\main.c      ****     else //Faldende 
 220:.\main.c      ****     {
 221:.\main.c      ****         diff = -10;
 1257              		.loc 1 221 0
 1258 0074 0A4B     		ldr	r3, .L56+12
 1259 0076 0A22     		mov	r2, #10
 1260 0078 5242     		neg	r2, r2
 1261 007a 1A80     		strh	r2, [r3]
 222:.\main.c      ****         diff2 = diff;
 1262              		.loc 1 222 0
 1263 007c 084B     		ldr	r3, .L56+12
 1264 007e 1A88     		ldrh	r2, [r3]
 1265 0080 084B     		ldr	r3, .L56+16
 1266 0082 1A80     		strh	r2, [r3]
 223:.\main.c      ****         return diff;
 1267              		.loc 1 223 0
 1268 0084 064B     		ldr	r3, .L56+12
 1269 0086 1B88     		ldrh	r3, [r3]
 1270 0088 1BB2     		sxth	r3, r3
 1271              	.L54:
 224:.\main.c      ****     } 
 225:.\main.c      **** }
 1272              		.loc 1 225 0
 1273 008a 181C     		mov	r0, r3
 1274 008c BD46     		mov	sp, r7
 1275 008e 03B0     		add	sp, sp, #12
 1276              		@ sp needed
 1277 0090 90BD     		pop	{r4, r7, pc}
 1278              	.L57:
 1279 0092 C046     		.align	2
ARM GAS  C:\Users\LINETT~1\AppData\Local\Temp\ccb9UJpd.s 			page 28


 1280              	.L56:
 1281 0094 00000000 		.word	old
 1282 0098 7B14AE47 		.word	1202590843
 1283 009c E17A843F 		.word	1065646817
 1284 00a0 00000000 		.word	diff
 1285 00a4 00000000 		.word	diff2
 1286              		.cfi_endproc
 1287              	.LFE43:
 1288              		.size	differentiator, .-differentiator
 1289              		.section	.text.ADC_interrupt,"ax",%progbits
 1290              		.align	2
 1291              		.global	ADC_interrupt
 1292              		.code	16
 1293              		.thumb_func
 1294              		.type	ADC_interrupt, %function
 1295              	ADC_interrupt:
 1296              	.LFB44:
 226:.\main.c      **** 
 227:.\main.c      **** /***********************************ISR***********************************/
 228:.\main.c      **** 
 229:.\main.c      **** CY_ISR(ADC_interrupt)
 230:.\main.c      **** {  
 1297              		.loc 1 230 0
 1298              		.cfi_startproc
 1299 0000 80B5     		push	{r7, lr}
 1300              		.cfi_def_cfa_offset 8
 1301              		.cfi_offset 7, -8
 1302              		.cfi_offset 14, -4
 1303 0002 00AF     		add	r7, sp, #0
 1304              		.cfi_def_cfa_register 7
 231:.\main.c      ****     accroed = ADC_GetResult16(0)-1010+7;
 1305              		.loc 1 231 0
 1306 0004 0020     		mov	r0, #0
 1307 0006 FFF7FEFF 		bl	ADC_GetResult16
 1308 000a 031C     		mov	r3, r0
 1309 000c 9BB2     		uxth	r3, r3
 1310 000e 4F4A     		ldr	r2, .L63
 1311 0010 9446     		mov	ip, r2
 1312 0012 6344     		add	r3, r3, ip
 1313 0014 9BB2     		uxth	r3, r3
 1314 0016 9AB2     		uxth	r2, r3
 1315 0018 4D4B     		ldr	r3, .L63+4
 1316 001a 1A80     		strh	r2, [r3]
 232:.\main.c      ****     accgroen = ADC_GetResult16(1)-1024+52;
 1317              		.loc 1 232 0
 1318 001c 0120     		mov	r0, #1
 1319 001e FFF7FEFF 		bl	ADC_GetResult16
 1320 0022 031C     		mov	r3, r0
 1321 0024 9BB2     		uxth	r3, r3
 1322 0026 4B4A     		ldr	r2, .L63+8
 1323 0028 9446     		mov	ip, r2
 1324 002a 6344     		add	r3, r3, ip
 1325 002c 9BB2     		uxth	r3, r3
 1326 002e 9AB2     		uxth	r2, r3
 1327 0030 494B     		ldr	r3, .L63+12
 1328 0032 1A80     		strh	r2, [r3]
 233:.\main.c      ****     EMG = ADC_GetResult16(2);
ARM GAS  C:\Users\LINETT~1\AppData\Local\Temp\ccb9UJpd.s 			page 29


 1329              		.loc 1 233 0
 1330 0034 0220     		mov	r0, #2
 1331 0036 FFF7FEFF 		bl	ADC_GetResult16
 1332 003a 031C     		mov	r3, r0
 1333 003c 1A1C     		mov	r2, r3
 1334 003e 474B     		ldr	r3, .L63+16
 1335 0040 1A80     		strh	r2, [r3]
 234:.\main.c      ****     
 235:.\main.c      ****     data_ready = TRUE;
 1336              		.loc 1 235 0
 1337 0042 474B     		ldr	r3, .L63+20
 1338 0044 0122     		mov	r2, #1
 1339 0046 1A70     		strb	r2, [r3]
 236:.\main.c      ****     
 237:.\main.c      ****     /* Databehandling */
 238:.\main.c      ****          
 239:.\main.c      ****     if(data_ready)
 1340              		.loc 1 239 0
 1341 0048 454B     		ldr	r3, .L63+20
 1342 004a 1B78     		ldrb	r3, [r3]
 1343 004c 002B     		cmp	r3, #0
 1344 004e 00D1     		bne	.LCB1020
 1345 0050 79E0     		b	.L58	@long jump
 1346              	.LCB1020:
 240:.\main.c      ****     {   
 241:.\main.c      ****         /* Accelerometerne*/
 242:.\main.c      ****         //Debug_Write(1);                               //Måling af forsinkelse
 243:.\main.c      ****         mav_data_roed = mavg_filter(accroed);           //Moving average filter til kanal 1
 1347              		.loc 1 243 0
 1348 0052 3F4B     		ldr	r3, .L63+4
 1349 0054 1B88     		ldrh	r3, [r3]
 1350 0056 1BB2     		sxth	r3, r3
 1351 0058 181C     		mov	r0, r3
 1352 005a FFF7FEFF 		bl	mavg_filter
 1353 005e 031C     		mov	r3, r0
 1354 0060 9AB2     		uxth	r2, r3
 1355 0062 404B     		ldr	r3, .L63+24
 1356 0064 1A80     		strh	r2, [r3]
 244:.\main.c      ****         grader_roed = roed_grader(mav_data_roed);       //Grader tages til det filtrede signal
 1357              		.loc 1 244 0
 1358 0066 3F4B     		ldr	r3, .L63+24
 1359 0068 1B88     		ldrh	r3, [r3]
 1360 006a 1BB2     		sxth	r3, r3
 1361 006c 181C     		mov	r0, r3
 1362 006e FFF7FEFF 		bl	roed_grader
 1363 0072 031C     		mov	r3, r0
 1364 0074 9AB2     		uxth	r2, r3
 1365 0076 3C4B     		ldr	r3, .L63+28
 1366 0078 1A80     		strh	r2, [r3]
 245:.\main.c      ****         
 246:.\main.c      ****         mav_data_groen = mavg_filter2(accgroen);        //Moving average filter til kanal 2
 1367              		.loc 1 246 0
 1368 007a 374B     		ldr	r3, .L63+12
 1369 007c 1B88     		ldrh	r3, [r3]
 1370 007e 1BB2     		sxth	r3, r3
 1371 0080 181C     		mov	r0, r3
 1372 0082 FFF7FEFF 		bl	mavg_filter2
ARM GAS  C:\Users\LINETT~1\AppData\Local\Temp\ccb9UJpd.s 			page 30


 1373 0086 031C     		mov	r3, r0
 1374 0088 9AB2     		uxth	r2, r3
 1375 008a 384B     		ldr	r3, .L63+32
 1376 008c 1A80     		strh	r2, [r3]
 247:.\main.c      ****         grader_groen = groen_grader(mav_data_groen);    //Grader tages til det filtrede signal
 1377              		.loc 1 247 0
 1378 008e 374B     		ldr	r3, .L63+32
 1379 0090 1B88     		ldrh	r3, [r3]
 1380 0092 1BB2     		sxth	r3, r3
 1381 0094 181C     		mov	r0, r3
 1382 0096 FFF7FEFF 		bl	groen_grader
 1383 009a 031C     		mov	r3, r0
 1384 009c 9AB2     		uxth	r2, r3
 1385 009e 344B     		ldr	r3, .L63+36
 1386 00a0 1A80     		strh	r2, [r3]
 248:.\main.c      **** 
 249:.\main.c      ****         samlet_grader=grader_roed+grader_groen;         //Graderne lægges sammen, således vinklen
 1387              		.loc 1 249 0
 1388 00a2 314B     		ldr	r3, .L63+28
 1389 00a4 1B88     		ldrh	r3, [r3]
 1390 00a6 9AB2     		uxth	r2, r3
 1391 00a8 314B     		ldr	r3, .L63+36
 1392 00aa 1B88     		ldrh	r3, [r3]
 1393 00ac 9BB2     		uxth	r3, r3
 1394 00ae D318     		add	r3, r2, r3
 1395 00b0 9BB2     		uxth	r3, r3
 1396 00b2 9AB2     		uxth	r2, r3
 1397 00b4 2F4B     		ldr	r3, .L63+40
 1398 00b6 1A80     		strh	r2, [r3]
 250:.\main.c      ****  
 251:.\main.c      ****         /* EMG */
 252:.\main.c      ****         low_pass_data = low_pass_filter(EMG);        
 1399              		.loc 1 252 0
 1400 00b8 284B     		ldr	r3, .L63+16
 1401 00ba 1B88     		ldrh	r3, [r3]
 1402 00bc 1BB2     		sxth	r3, r3
 1403 00be 181C     		mov	r0, r3
 1404 00c0 FFF7FEFF 		bl	low_pass_filter
 1405 00c4 031C     		mov	r3, r0
 1406 00c6 9AB2     		uxth	r2, r3
 1407 00c8 2B4B     		ldr	r3, .L63+44
 1408 00ca 1A80     		strh	r2, [r3]
 253:.\main.c      ****         diff_data = differentiator(low_pass_data);
 1409              		.loc 1 253 0
 1410 00cc 2A4B     		ldr	r3, .L63+44
 1411 00ce 1B88     		ldrh	r3, [r3]
 1412 00d0 1BB2     		sxth	r3, r3
 1413 00d2 181C     		mov	r0, r3
 1414 00d4 FFF7FEFF 		bl	differentiator
 1415 00d8 031C     		mov	r3, r0
 1416 00da 9AB2     		uxth	r2, r3
 1417 00dc 274B     		ldr	r3, .L63+48
 1418 00de 1A80     		strh	r2, [r3]
 254:.\main.c      ****         //Debug_Write(0);                               //Slut på måling af forsinkelse
 255:.\main.c      ****         
 256:.\main.c      ****         /* LED */
 257:.\main.c      ****          if (samlet_grader<90)
ARM GAS  C:\Users\LINETT~1\AppData\Local\Temp\ccb9UJpd.s 			page 31


 1419              		.loc 1 257 0
 1420 00e0 244B     		ldr	r3, .L63+40
 1421 00e2 1B88     		ldrh	r3, [r3]
 1422 00e4 1BB2     		sxth	r3, r3
 1423 00e6 592B     		cmp	r3, #89
 1424 00e8 05DC     		bgt	.L60
 258:.\main.c      ****         {
 259:.\main.c      ****             Pin_Green_Write(LED_OFF); 
 1425              		.loc 1 259 0
 1426 00ea 0120     		mov	r0, #1
 1427 00ec FFF7FEFF 		bl	Pin_Green_Write
 260:.\main.c      ****             Pin_Red_Write(LED_ON);
 1428              		.loc 1 260 0
 1429 00f0 0020     		mov	r0, #0
 1430 00f2 FFF7FEFF 		bl	Pin_Red_Write
 1431              	.L60:
 261:.\main.c      ****         }
 262:.\main.c      ****         if (samlet_grader>90)
 1432              		.loc 1 262 0
 1433 00f6 1F4B     		ldr	r3, .L63+40
 1434 00f8 1B88     		ldrh	r3, [r3]
 1435 00fa 1BB2     		sxth	r3, r3
 1436 00fc 5A2B     		cmp	r3, #90
 1437 00fe 05DD     		ble	.L61
 263:.\main.c      ****         {
 264:.\main.c      ****             Pin_Red_Write(LED_OFF);
 1438              		.loc 1 264 0
 1439 0100 0120     		mov	r0, #1
 1440 0102 FFF7FEFF 		bl	Pin_Red_Write
 265:.\main.c      ****             Pin_Green_Write(LED_ON);
 1441              		.loc 1 265 0
 1442 0106 0020     		mov	r0, #0
 1443 0108 FFF7FEFF 		bl	Pin_Green_Write
 1444              	.L61:
 266:.\main.c      ****         }
 267:.\main.c      ****         if (k==1)
 1445              		.loc 1 267 0
 1446 010c 1C4B     		ldr	r3, .L63+52
 1447 010e 1B88     		ldrh	r3, [r3]
 1448 0110 1BB2     		sxth	r3, r3
 1449 0112 012B     		cmp	r3, #1
 1450 0114 05D1     		bne	.L62
 268:.\main.c      ****         {
 269:.\main.c      ****            Pin_Red_Write(LED_OFF);
 1451              		.loc 1 269 0
 1452 0116 0120     		mov	r0, #1
 1453 0118 FFF7FEFF 		bl	Pin_Red_Write
 270:.\main.c      ****            Pin_Green_Write(LED_OFF);
 1454              		.loc 1 270 0
 1455 011c 0120     		mov	r0, #1
 1456 011e FFF7FEFF 		bl	Pin_Green_Write
 1457              	.L62:
 271:.\main.c      ****         }
 272:.\main.c      ****         
 273:.\main.c      ****         
 274:.\main.c      ****         /* Plots */
 275:.\main.c      **** 
ARM GAS  C:\Users\LINETT~1\AppData\Local\Temp\ccb9UJpd.s 			page 32


 276:.\main.c      ****        
 277:.\main.c      ****         UART_UartPutChar(samlet_grader);                
 1458              		.loc 1 277 0
 1459 0122 144B     		ldr	r3, .L63+40
 1460 0124 1B88     		ldrh	r3, [r3]
 1461 0126 1BB2     		sxth	r3, r3
 1462 0128 181C     		mov	r0, r3
 1463 012a FFF7FEFF 		bl	UART_SpiUartWriteTxData
 278:.\main.c      ****         UART_UartPutChar(samlet_grader>>8);
 1464              		.loc 1 278 0
 1465 012e 114B     		ldr	r3, .L63+40
 1466 0130 1B88     		ldrh	r3, [r3]
 1467 0132 1BB2     		sxth	r3, r3
 1468 0134 1B12     		asr	r3, r3, #8
 1469 0136 9BB2     		uxth	r3, r3
 1470 0138 1BB2     		sxth	r3, r3
 1471 013a 181C     		mov	r0, r3
 1472 013c FFF7FEFF 		bl	UART_SpiUartWriteTxData
 279:.\main.c      **** 
 280:.\main.c      ****         //UART_UartPutChar(diff_data);                
 281:.\main.c      ****         //UART_UartPutChar(diff_data>>8);
 282:.\main.c      ****               
 283:.\main.c      ****         data_ready = FALSE;
 1473              		.loc 1 283 0
 1474 0140 074B     		ldr	r3, .L63+20
 1475 0142 0022     		mov	r2, #0
 1476 0144 1A70     		strb	r2, [r3]
 1477              	.L58:
 284:.\main.c      ****     }
 285:.\main.c      **** }
 1478              		.loc 1 285 0
 1479 0146 BD46     		mov	sp, r7
 1480              		@ sp needed
 1481 0148 80BD     		pop	{r7, pc}
 1482              	.L64:
 1483 014a C046     		.align	2
 1484              	.L63:
 1485 014c 15FCFFFF 		.word	-1003
 1486 0150 00000000 		.word	accroed
 1487 0154 34FCFFFF 		.word	-972
 1488 0158 00000000 		.word	accgroen
 1489 015c 00000000 		.word	EMG
 1490 0160 00000000 		.word	data_ready
 1491 0164 00000000 		.word	mav_data_roed
 1492 0168 00000000 		.word	grader_roed
 1493 016c 00000000 		.word	mav_data_groen
 1494 0170 00000000 		.word	grader_groen
 1495 0174 00000000 		.word	samlet_grader
 1496 0178 00000000 		.word	low_pass_data
 1497 017c 00000000 		.word	diff_data
 1498 0180 00000000 		.word	k
 1499              		.cfi_endproc
 1500              	.LFE44:
 1501              		.size	ADC_interrupt, .-ADC_interrupt
 1502              		.section	.text.Pin_SW2_handler,"ax",%progbits
 1503              		.align	2
 1504              		.global	Pin_SW2_handler
ARM GAS  C:\Users\LINETT~1\AppData\Local\Temp\ccb9UJpd.s 			page 33


 1505              		.code	16
 1506              		.thumb_func
 1507              		.type	Pin_SW2_handler, %function
 1508              	Pin_SW2_handler:
 1509              	.LFB45:
 286:.\main.c      **** 
 287:.\main.c      **** CY_ISR(Pin_SW2_handler)
 288:.\main.c      **** {
 1510              		.loc 1 288 0
 1511              		.cfi_startproc
 1512 0000 80B5     		push	{r7, lr}
 1513              		.cfi_def_cfa_offset 8
 1514              		.cfi_offset 7, -8
 1515              		.cfi_offset 14, -4
 1516 0002 00AF     		add	r7, sp, #0
 1517              		.cfi_def_cfa_register 7
 289:.\main.c      ****     
 290:.\main.c      ****     if (j==0)
 1518              		.loc 1 290 0
 1519 0004 154B     		ldr	r3, .L68
 1520 0006 1B88     		ldrh	r3, [r3]
 1521 0008 002B     		cmp	r3, #0
 1522 000a 14D1     		bne	.L66
 291:.\main.c      ****     {
 292:.\main.c      ****         k=0;
 1523              		.loc 1 292 0
 1524 000c 144B     		ldr	r3, .L68+4
 1525 000e 0022     		mov	r2, #0
 1526 0010 1A80     		strh	r2, [r3]
 293:.\main.c      ****         Pin_Green_Write(LED_ON);
 1527              		.loc 1 293 0
 1528 0012 0020     		mov	r0, #0
 1529 0014 FFF7FEFF 		bl	Pin_Green_Write
 294:.\main.c      ****         Pin_Red_Write(LED_OFF);
 1530              		.loc 1 294 0
 1531 0018 0120     		mov	r0, #1
 1532 001a FFF7FEFF 		bl	Pin_Red_Write
 295:.\main.c      ****         ADC_StartConvert();
 1533              		.loc 1 295 0
 1534 001e FFF7FEFF 		bl	ADC_StartConvert
 296:.\main.c      ****         j++; 
 1535              		.loc 1 296 0
 1536 0022 0E4B     		ldr	r3, .L68
 1537 0024 1B88     		ldrh	r3, [r3]
 1538 0026 9BB2     		uxth	r3, r3
 1539 0028 9BB2     		uxth	r3, r3
 1540 002a 0133     		add	r3, r3, #1
 1541 002c 9BB2     		uxth	r3, r3
 1542 002e 9AB2     		uxth	r2, r3
 1543 0030 0A4B     		ldr	r3, .L68
 1544 0032 1A80     		strh	r2, [r3]
 1545 0034 0DE0     		b	.L67
 1546              	.L66:
 297:.\main.c      ****     }
 298:.\main.c      ****     else 
 299:.\main.c      ****     {
 300:.\main.c      ****         ADC_StopConvert();
ARM GAS  C:\Users\LINETT~1\AppData\Local\Temp\ccb9UJpd.s 			page 34


 1547              		.loc 1 300 0
 1548 0036 FFF7FEFF 		bl	ADC_StopConvert
 301:.\main.c      ****         Pin_Red_Write(LED_OFF);
 1549              		.loc 1 301 0
 1550 003a 0120     		mov	r0, #1
 1551 003c FFF7FEFF 		bl	Pin_Red_Write
 302:.\main.c      ****         Pin_Green_Write(LED_OFF);
 1552              		.loc 1 302 0
 1553 0040 0120     		mov	r0, #1
 1554 0042 FFF7FEFF 		bl	Pin_Green_Write
 303:.\main.c      ****         j=0;
 1555              		.loc 1 303 0
 1556 0046 054B     		ldr	r3, .L68
 1557 0048 0022     		mov	r2, #0
 1558 004a 1A80     		strh	r2, [r3]
 304:.\main.c      ****         k=1;
 1559              		.loc 1 304 0
 1560 004c 044B     		ldr	r3, .L68+4
 1561 004e 0122     		mov	r2, #1
 1562 0050 1A80     		strh	r2, [r3]
 1563              	.L67:
 305:.\main.c      ****     }
 306:.\main.c      ****     
 307:.\main.c      ****     Pin_SW2_ClearInterrupt(); 
 1564              		.loc 1 307 0
 1565 0052 FFF7FEFF 		bl	Pin_SW2_ClearInterrupt
 308:.\main.c      **** }
 1566              		.loc 1 308 0
 1567 0056 BD46     		mov	sp, r7
 1568              		@ sp needed
 1569 0058 80BD     		pop	{r7, pc}
 1570              	.L69:
 1571 005a C046     		.align	2
 1572              	.L68:
 1573 005c 00000000 		.word	j
 1574 0060 00000000 		.word	k
 1575              		.cfi_endproc
 1576              	.LFE45:
 1577              		.size	Pin_SW2_handler, .-Pin_SW2_handler
 1578              		.section	.text.main,"ax",%progbits
 1579              		.align	2
 1580              		.global	main
 1581              		.code	16
 1582              		.thumb_func
 1583              		.type	main, %function
 1584              	main:
 1585              	.LFB46:
 309:.\main.c      **** 
 310:.\main.c      **** /***********************************Main***********************************/
 311:.\main.c      **** int main()
 312:.\main.c      **** {   
 1586              		.loc 1 312 0
 1587              		.cfi_startproc
 1588 0000 80B5     		push	{r7, lr}
 1589              		.cfi_def_cfa_offset 8
 1590              		.cfi_offset 7, -8
 1591              		.cfi_offset 14, -4
ARM GAS  C:\Users\LINETT~1\AppData\Local\Temp\ccb9UJpd.s 			page 35


 1592 0002 00AF     		add	r7, sp, #0
 1593              		.cfi_def_cfa_register 7
 313:.\main.c      ****     Debug_Write(0);
 1594              		.loc 1 313 0
 1595 0004 0020     		mov	r0, #0
 1596 0006 FFF7FEFF 		bl	Debug_Write
 314:.\main.c      ****     pin_SW2_int_StartEx(Pin_SW2_handler);
 1597              		.loc 1 314 0
 1598 000a 0A4B     		ldr	r3, .L72
 1599 000c 181C     		mov	r0, r3
 1600 000e FFF7FEFF 		bl	pin_SW2_int_StartEx
 315:.\main.c      ****     ADC_ISR_StartEx(ADC_interrupt);
 1601              		.loc 1 315 0
 1602 0012 094B     		ldr	r3, .L72+4
 1603 0014 181C     		mov	r0, r3
 1604 0016 FFF7FEFF 		bl	ADC_ISR_StartEx
 316:.\main.c      ****     CyGlobalIntEnable;
 1605              		.loc 1 316 0
 1606              	@ 316 ".\main.c" 1
 1607 001a 62B6     		CPSIE   i
 1608              	@ 0 "" 2
 317:.\main.c      ****     UART_Start();                       /* Initialize ADC */    
 1609              		.loc 1 317 0
 1610              		.code	16
 1611 001c FFF7FEFF 		bl	UART_Start
 318:.\main.c      ****     ADC_Start();                        /* Initialize ADC */
 1612              		.loc 1 318 0
 1613 0020 FFF7FEFF 		bl	ADC_Start
 319:.\main.c      ****     ADC_IRQ_Enable();                   /* Enable ADC interrupts */   
 1614              		.loc 1 319 0
 1615 0024 FFF7FEFF 		bl	ADC_IRQ_Enable
 320:.\main.c      ****     CySysPmSleep();
 1616              		.loc 1 320 0
 1617 0028 FFF7FEFF 		bl	CySysPmSleep
 321:.\main.c      ****     return 0;  
 1618              		.loc 1 321 0
 1619 002c 0023     		mov	r3, #0
 322:.\main.c      **** }...
 1620              		.loc 1 322 0
 1621 002e 181C     		mov	r0, r3
 1622 0030 BD46     		mov	sp, r7
 1623              		@ sp needed
 1624 0032 80BD     		pop	{r7, pc}
 1625              	.L73:
 1626              		.align	2
 1627              	.L72:
 1628 0034 00000000 		.word	Pin_SW2_handler
 1629 0038 00000000 		.word	ADC_interrupt
 1630              		.cfi_endproc
 1631              	.LFE46:
 1632              		.size	main, .-main
 1633              		.text
 1634              	.Letext0:
 1635              		.file 2 "Generated_Source\\PSoC4/cytypes.h"
 1636              		.section	.debug_info,"",%progbits
 1637              	.Ldebug_info0:
 1638 0000 5D040000 		.4byte	0x45d
ARM GAS  C:\Users\LINETT~1\AppData\Local\Temp\ccb9UJpd.s 			page 36


 1639 0004 0400     		.2byte	0x4
 1640 0006 00000000 		.4byte	.Ldebug_abbrev0
 1641 000a 04       		.byte	0x4
 1642 000b 01       		.uleb128 0x1
 1643 000c 70020000 		.4byte	.LASF54
 1644 0010 01       		.byte	0x1
 1645 0011 66000000 		.4byte	.LASF55
 1646 0015 F4000000 		.4byte	.LASF56
 1647 0019 00000000 		.4byte	.Ldebug_ranges0+0
 1648 001d 00000000 		.4byte	0
 1649 0021 00000000 		.4byte	.Ldebug_line0
 1650 0025 02       		.uleb128 0x2
 1651 0026 01       		.byte	0x1
 1652 0027 06       		.byte	0x6
 1653 0028 5A000000 		.4byte	.LASF0
 1654 002c 02       		.uleb128 0x2
 1655 002d 01       		.byte	0x1
 1656 002e 08       		.byte	0x8
 1657 002f A5010000 		.4byte	.LASF1
 1658 0033 02       		.uleb128 0x2
 1659 0034 02       		.byte	0x2
 1660 0035 05       		.byte	0x5
 1661 0036 B9010000 		.4byte	.LASF2
 1662 003a 02       		.uleb128 0x2
 1663 003b 02       		.byte	0x2
 1664 003c 07       		.byte	0x7
 1665 003d E1000000 		.4byte	.LASF3
 1666 0041 02       		.uleb128 0x2
 1667 0042 04       		.byte	0x4
 1668 0043 05       		.byte	0x5
 1669 0044 6F000000 		.4byte	.LASF4
 1670 0048 02       		.uleb128 0x2
 1671 0049 04       		.byte	0x4
 1672 004a 07       		.byte	0x7
 1673 004b BD000000 		.4byte	.LASF5
 1674 004f 02       		.uleb128 0x2
 1675 0050 08       		.byte	0x8
 1676 0051 05       		.byte	0x5
 1677 0052 4C000000 		.4byte	.LASF6
 1678 0056 02       		.uleb128 0x2
 1679 0057 08       		.byte	0x8
 1680 0058 07       		.byte	0x7
 1681 0059 29000000 		.4byte	.LASF7
 1682 005d 03       		.uleb128 0x3
 1683 005e 04       		.byte	0x4
 1684 005f 05       		.byte	0x5
 1685 0060 696E7400 		.ascii	"int\000"
 1686 0064 02       		.uleb128 0x2
 1687 0065 04       		.byte	0x4
 1688 0066 07       		.byte	0x7
 1689 0067 B0000000 		.4byte	.LASF8
 1690 006b 04       		.uleb128 0x4
 1691 006c 78000000 		.4byte	.LASF9
 1692 0070 02       		.byte	0x2
 1693 0071 3801     		.2byte	0x138
 1694 0073 2C000000 		.4byte	0x2c
 1695 0077 04       		.uleb128 0x4
ARM GAS  C:\Users\LINETT~1\AppData\Local\Temp\ccb9UJpd.s 			page 37


 1696 0078 96000000 		.4byte	.LASF10
 1697 007c 02       		.byte	0x2
 1698 007d 3A01     		.2byte	0x13a
 1699 007f 48000000 		.4byte	0x48
 1700 0083 04       		.uleb128 0x4
 1701 0084 5C020000 		.4byte	.LASF11
 1702 0088 02       		.byte	0x2
 1703 0089 3C01     		.2byte	0x13c
 1704 008b 33000000 		.4byte	0x33
 1705 008f 02       		.uleb128 0x2
 1706 0090 04       		.byte	0x4
 1707 0091 04       		.byte	0x4
 1708 0092 95010000 		.4byte	.LASF12
 1709 0096 02       		.uleb128 0x2
 1710 0097 08       		.byte	0x8
 1711 0098 04       		.byte	0x4
 1712 0099 8F000000 		.4byte	.LASF13
 1713 009d 02       		.uleb128 0x2
 1714 009e 01       		.byte	0x1
 1715 009f 08       		.byte	0x8
 1716 00a0 F8010000 		.4byte	.LASF14
 1717 00a4 02       		.uleb128 0x2
 1718 00a5 04       		.byte	0x4
 1719 00a6 07       		.byte	0x7
 1720 00a7 51010000 		.4byte	.LASF15
 1721 00ab 05       		.uleb128 0x5
 1722 00ac FD010000 		.4byte	.LASF16
 1723 00b0 01       		.byte	0x1
 1724 00b1 2C       		.byte	0x2c
 1725 00b2 5D000000 		.4byte	0x5d
 1726 00b6 00000000 		.4byte	.LFB37
 1727 00ba 5C000000 		.4byte	.LFE37-.LFB37
 1728 00be 01       		.uleb128 0x1
 1729 00bf 9C       		.byte	0x9c
 1730 00c0 D1000000 		.4byte	0xd1
 1731 00c4 06       		.uleb128 0x6
 1732 00c5 7900     		.ascii	"y\000"
 1733 00c7 01       		.byte	0x1
 1734 00c8 2C       		.byte	0x2c
 1735 00c9 96000000 		.4byte	0x96
 1736 00cd 02       		.uleb128 0x2
 1737 00ce 91       		.byte	0x91
 1738 00cf 68       		.sleb128 -24
 1739 00d0 00       		.byte	0
 1740 00d1 05       		.uleb128 0x5
 1741 00d2 2D020000 		.4byte	.LASF17
 1742 00d6 01       		.byte	0x1
 1743 00d7 35       		.byte	0x35
 1744 00d8 5D000000 		.4byte	0x5d
 1745 00dc 00000000 		.4byte	.LFB38
 1746 00e0 04010000 		.4byte	.LFE38-.LFB38
 1747 00e4 01       		.uleb128 0x1
 1748 00e5 9C       		.byte	0x9c
 1749 00e6 F9000000 		.4byte	0xf9
 1750 00ea 07       		.uleb128 0x7
 1751 00eb CF000000 		.4byte	.LASF18
 1752 00ef 01       		.byte	0x1
ARM GAS  C:\Users\LINETT~1\AppData\Local\Temp\ccb9UJpd.s 			page 38


 1753 00f0 35       		.byte	0x35
 1754 00f1 5D000000 		.4byte	0x5d
 1755 00f5 02       		.uleb128 0x2
 1756 00f6 91       		.byte	0x91
 1757 00f7 6C       		.sleb128 -20
 1758 00f8 00       		.byte	0
 1759 00f9 05       		.uleb128 0x5
 1760 00fa D4000000 		.4byte	.LASF19
 1761 00fe 01       		.byte	0x1
 1762 00ff 49       		.byte	0x49
 1763 0100 5D000000 		.4byte	0x5d
 1764 0104 00000000 		.4byte	.LFB39
 1765 0108 0C010000 		.4byte	.LFE39-.LFB39
 1766 010c 01       		.uleb128 0x1
 1767 010d 9C       		.byte	0x9c
 1768 010e 21010000 		.4byte	0x121
 1769 0112 07       		.uleb128 0x7
 1770 0113 CF000000 		.4byte	.LASF18
 1771 0117 01       		.byte	0x1
 1772 0118 49       		.byte	0x49
 1773 0119 5D000000 		.4byte	0x5d
 1774 011d 02       		.uleb128 0x2
 1775 011e 91       		.byte	0x91
 1776 011f 6C       		.sleb128 -20
 1777 0120 00       		.byte	0
 1778 0121 05       		.uleb128 0x5
 1779 0122 D8010000 		.4byte	.LASF20
 1780 0126 01       		.byte	0x1
 1781 0127 5D       		.byte	0x5d
 1782 0128 5D000000 		.4byte	0x5d
 1783 012c 00000000 		.4byte	.LFB40
 1784 0130 24010000 		.4byte	.LFE40-.LFB40
 1785 0134 01       		.uleb128 0x1
 1786 0135 9C       		.byte	0x9c
 1787 0136 55010000 		.4byte	0x155
 1788 013a 07       		.uleb128 0x7
 1789 013b CF000000 		.4byte	.LASF18
 1790 013f 01       		.byte	0x1
 1791 0140 5D       		.byte	0x5d
 1792 0141 5D000000 		.4byte	0x5d
 1793 0145 02       		.uleb128 0x2
 1794 0146 91       		.byte	0x91
 1795 0147 64       		.sleb128 -28
 1796 0148 08       		.uleb128 0x8
 1797 0149 6900     		.ascii	"i\000"
 1798 014b 01       		.byte	0x1
 1799 014c 5F       		.byte	0x5f
 1800 014d 5D000000 		.4byte	0x5d
 1801 0151 02       		.uleb128 0x2
 1802 0152 91       		.byte	0x91
 1803 0153 6C       		.sleb128 -20
 1804 0154 00       		.byte	0
 1805 0155 05       		.uleb128 0x5
 1806 0156 45010000 		.4byte	.LASF21
 1807 015a 01       		.byte	0x1
 1808 015b 79       		.byte	0x79
 1809 015c 5D000000 		.4byte	0x5d
ARM GAS  C:\Users\LINETT~1\AppData\Local\Temp\ccb9UJpd.s 			page 39


 1810 0160 00000000 		.4byte	.LFB41
 1811 0164 1C010000 		.4byte	.LFE41-.LFB41
 1812 0168 01       		.uleb128 0x1
 1813 0169 9C       		.byte	0x9c
 1814 016a 7D010000 		.4byte	0x17d
 1815 016e 07       		.uleb128 0x7
 1816 016f CF000000 		.4byte	.LASF18
 1817 0173 01       		.byte	0x1
 1818 0174 79       		.byte	0x79
 1819 0175 5D000000 		.4byte	0x5d
 1820 0179 02       		.uleb128 0x2
 1821 017a 91       		.byte	0x91
 1822 017b 74       		.sleb128 -12
 1823 017c 00       		.byte	0
 1824 017d 05       		.uleb128 0x5
 1825 017e CB010000 		.4byte	.LASF22
 1826 0182 01       		.byte	0x1
 1827 0183 A1       		.byte	0xa1
 1828 0184 5D000000 		.4byte	0x5d
 1829 0188 00000000 		.4byte	.LFB42
 1830 018c 1E010000 		.4byte	.LFE42-.LFB42
 1831 0190 01       		.uleb128 0x1
 1832 0191 9C       		.byte	0x9c
 1833 0192 A5010000 		.4byte	0x1a5
 1834 0196 07       		.uleb128 0x7
 1835 0197 CF000000 		.4byte	.LASF18
 1836 019b 01       		.byte	0x1
 1837 019c A1       		.byte	0xa1
 1838 019d 5D000000 		.4byte	0x5d
 1839 01a1 02       		.uleb128 0x2
 1840 01a2 91       		.byte	0x91
 1841 01a3 74       		.sleb128 -12
 1842 01a4 00       		.byte	0
 1843 01a5 05       		.uleb128 0x5
 1844 01a6 FE020000 		.4byte	.LASF23
 1845 01aa 01       		.byte	0x1
 1846 01ab CA       		.byte	0xca
 1847 01ac 5D000000 		.4byte	0x5d
 1848 01b0 00000000 		.4byte	.LFB43
 1849 01b4 A8000000 		.4byte	.LFE43-.LFB43
 1850 01b8 01       		.uleb128 0x1
 1851 01b9 9C       		.byte	0x9c
 1852 01ba CD010000 		.4byte	0x1cd
 1853 01be 06       		.uleb128 0x6
 1854 01bf 6E657700 		.ascii	"new\000"
 1855 01c3 01       		.byte	0x1
 1856 01c4 CA       		.byte	0xca
 1857 01c5 5D000000 		.4byte	0x5d
 1858 01c9 02       		.uleb128 0x2
 1859 01ca 91       		.byte	0x91
 1860 01cb 6C       		.sleb128 -20
 1861 01cc 00       		.byte	0
 1862 01cd 09       		.uleb128 0x9
 1863 01ce 39020000 		.4byte	.LASF24
 1864 01d2 01       		.byte	0x1
 1865 01d3 E5       		.byte	0xe5
 1866 01d4 00000000 		.4byte	.LFB44
ARM GAS  C:\Users\LINETT~1\AppData\Local\Temp\ccb9UJpd.s 			page 40


 1867 01d8 84010000 		.4byte	.LFE44-.LFB44
 1868 01dc 01       		.uleb128 0x1
 1869 01dd 9C       		.byte	0x9c
 1870 01de 0A       		.uleb128 0xa
 1871 01df E8010000 		.4byte	.LASF25
 1872 01e3 01       		.byte	0x1
 1873 01e4 1F01     		.2byte	0x11f
 1874 01e6 00000000 		.4byte	.LFB45
 1875 01ea 64000000 		.4byte	.LFE45-.LFB45
 1876 01ee 01       		.uleb128 0x1
 1877 01ef 9C       		.byte	0x9c
 1878 01f0 0B       		.uleb128 0xb
 1879 01f1 0D030000 		.4byte	.LASF26
 1880 01f5 01       		.byte	0x1
 1881 01f6 3701     		.2byte	0x137
 1882 01f8 5D000000 		.4byte	0x5d
 1883 01fc 00000000 		.4byte	.LFB46
 1884 0200 3C000000 		.4byte	.LFE46-.LFB46
 1885 0204 01       		.uleb128 0x1
 1886 0205 9C       		.byte	0x9c
 1887 0206 0C       		.uleb128 0xc
 1888 0207 96000000 		.4byte	0x96
 1889 020b 16020000 		.4byte	0x216
 1890 020f 0D       		.uleb128 0xd
 1891 0210 A4000000 		.4byte	0xa4
 1892 0214 09       		.byte	0x9
 1893 0215 00       		.byte	0
 1894 0216 0E       		.uleb128 0xe
 1895 0217 45000000 		.4byte	.LASF27
 1896 021b 01       		.byte	0x1
 1897 021c 0C       		.byte	0xc
 1898 021d 06020000 		.4byte	0x206
 1899 0221 05       		.uleb128 0x5
 1900 0222 03       		.byte	0x3
 1901 0223 00000000 		.4byte	x_mavg
 1902 0227 0E       		.uleb128 0xe
 1903 0228 88000000 		.4byte	.LASF28
 1904 022c 01       		.byte	0x1
 1905 022d 0D       		.byte	0xd
 1906 022e 96000000 		.4byte	0x96
 1907 0232 05       		.uleb128 0x5
 1908 0233 03       		.byte	0x3
 1909 0234 00000000 		.4byte	y_mavg
 1910 0238 0E       		.uleb128 0xe
 1911 0239 A9000000 		.4byte	.LASF29
 1912 023d 01       		.byte	0x1
 1913 023e 0E       		.byte	0xe
 1914 023f 06020000 		.4byte	0x206
 1915 0243 05       		.uleb128 0x5
 1916 0244 03       		.byte	0x3
 1917 0245 00000000 		.4byte	b_mavg
 1918 0249 0E       		.uleb128 0xe
 1919 024a 74010000 		.4byte	.LASF30
 1920 024e 01       		.byte	0x1
 1921 024f 12       		.byte	0x12
 1922 0250 06020000 		.4byte	0x206
 1923 0254 05       		.uleb128 0x5
ARM GAS  C:\Users\LINETT~1\AppData\Local\Temp\ccb9UJpd.s 			page 41


 1924 0255 03       		.byte	0x3
 1925 0256 00000000 		.4byte	x2_mavg
 1926 025a 0E       		.uleb128 0xe
 1927 025b 10000000 		.4byte	.LASF31
 1928 025f 01       		.byte	0x1
 1929 0260 13       		.byte	0x13
 1930 0261 96000000 		.4byte	0x96
 1931 0265 05       		.uleb128 0x5
 1932 0266 03       		.byte	0x3
 1933 0267 00000000 		.4byte	y2_mavg
 1934 026b 0E       		.uleb128 0xe
 1935 026c 47020000 		.4byte	.LASF32
 1936 0270 01       		.byte	0x1
 1937 0271 14       		.byte	0x14
 1938 0272 06020000 		.4byte	0x206
 1939 0276 05       		.uleb128 0x5
 1940 0277 03       		.byte	0x3
 1941 0278 00000000 		.4byte	b2_mavg
 1942 027c 0C       		.uleb128 0xc
 1943 027d 96000000 		.4byte	0x96
 1944 0281 8C020000 		.4byte	0x28c
 1945 0285 0D       		.uleb128 0xd
 1946 0286 A4000000 		.4byte	0xa4
 1947 028a 02       		.byte	0x2
 1948 028b 00       		.byte	0
 1949 028c 0E       		.uleb128 0xe
 1950 028d 0A000000 		.4byte	.LASF33
 1951 0291 01       		.byte	0x1
 1952 0292 17       		.byte	0x17
 1953 0293 7C020000 		.4byte	0x27c
 1954 0297 05       		.uleb128 0x5
 1955 0298 03       		.byte	0x3
 1956 0299 00000000 		.4byte	x_low
 1957 029d 0E       		.uleb128 0xe
 1958 029e B3010000 		.4byte	.LASF34
 1959 02a2 01       		.byte	0x1
 1960 02a3 18       		.byte	0x18
 1961 02a4 7C020000 		.4byte	0x27c
 1962 02a8 05       		.uleb128 0x5
 1963 02a9 03       		.byte	0x3
 1964 02aa 00000000 		.4byte	y_low
 1965 02ae 0E       		.uleb128 0xe
 1966 02af A3000000 		.4byte	.LASF35
 1967 02b3 01       		.byte	0x1
 1968 02b4 19       		.byte	0x19
 1969 02b5 7C020000 		.4byte	0x27c
 1970 02b9 05       		.uleb128 0x5
 1971 02ba 03       		.byte	0x3
 1972 02bb 00000000 		.4byte	b_low
 1973 02bf 0E       		.uleb128 0xe
 1974 02c0 9D000000 		.4byte	.LASF36
 1975 02c4 01       		.byte	0x1
 1976 02c5 1A       		.byte	0x1a
 1977 02c6 7C020000 		.4byte	0x27c
 1978 02ca 05       		.uleb128 0x5
 1979 02cb 03       		.byte	0x3
 1980 02cc 00000000 		.4byte	a_low
ARM GAS  C:\Users\LINETT~1\AppData\Local\Temp\ccb9UJpd.s 			page 42


 1981 02d0 0E       		.uleb128 0xe
 1982 02d1 18000000 		.4byte	.LASF37
 1983 02d5 01       		.byte	0x1
 1984 02d6 1C       		.byte	0x1c
 1985 02d7 83000000 		.4byte	0x83
 1986 02db 05       		.uleb128 0x5
 1987 02dc 03       		.byte	0x3
 1988 02dd 00000000 		.4byte	value_in
 1989 02e1 0C       		.uleb128 0xc
 1990 02e2 83000000 		.4byte	0x83
 1991 02e6 F1020000 		.4byte	0x2f1
 1992 02ea 0D       		.uleb128 0xd
 1993 02eb A4000000 		.4byte	0xa4
 1994 02ef 01       		.byte	0x1
 1995 02f0 00       		.byte	0
 1996 02f1 0E       		.uleb128 0xe
 1997 02f2 7E000000 		.4byte	.LASF38
 1998 02f6 01       		.byte	0x1
 1999 02f7 1C       		.byte	0x1c
 2000 02f8 E1020000 		.4byte	0x2e1
 2001 02fc 05       		.uleb128 0x5
 2002 02fd 03       		.byte	0x3
 2003 02fe 00000000 		.4byte	value_out
 2004 0302 0F       		.uleb128 0xf
 2005 0303 6900     		.ascii	"i\000"
 2006 0305 01       		.byte	0x1
 2007 0306 1C       		.byte	0x1c
 2008 0307 83000000 		.4byte	0x83
 2009 030b 05       		.uleb128 0x5
 2010 030c 03       		.byte	0x3
 2011 030d 00000000 		.4byte	i
 2012 0311 0F       		.uleb128 0xf
 2013 0312 6A00     		.ascii	"j\000"
 2014 0314 01       		.byte	0x1
 2015 0315 1C       		.byte	0x1c
 2016 0316 83000000 		.4byte	0x83
 2017 031a 05       		.uleb128 0x5
 2018 031b 03       		.byte	0x3
 2019 031c 00000000 		.4byte	j
 2020 0320 0F       		.uleb128 0xf
 2021 0321 6B00     		.ascii	"k\000"
 2022 0323 01       		.byte	0x1
 2023 0324 1C       		.byte	0x1c
 2024 0325 83000000 		.4byte	0x83
 2025 0329 05       		.uleb128 0x5
 2026 032a 03       		.byte	0x3
 2027 032b 00000000 		.4byte	k
 2028 032f 0E       		.uleb128 0xe
 2029 0330 4F020000 		.4byte	.LASF39
 2030 0334 01       		.byte	0x1
 2031 0335 1C       		.byte	0x1c
 2032 0336 83000000 		.4byte	0x83
 2033 033a 05       		.uleb128 0x5
 2034 033b 03       		.byte	0x3
 2035 033c 00000000 		.4byte	grader_groen
 2036 0340 0E       		.uleb128 0xe
 2037 0341 68010000 		.4byte	.LASF40
ARM GAS  C:\Users\LINETT~1\AppData\Local\Temp\ccb9UJpd.s 			page 43


 2038 0345 01       		.byte	0x1
 2039 0346 1C       		.byte	0x1c
 2040 0347 83000000 		.4byte	0x83
 2041 034b 05       		.uleb128 0x5
 2042 034c 03       		.byte	0x3
 2043 034d 00000000 		.4byte	grader_roed
 2044 0351 0E       		.uleb128 0xe
 2045 0352 40000000 		.4byte	.LASF41
 2046 0356 01       		.byte	0x1
 2047 0357 1C       		.byte	0x1c
 2048 0358 83000000 		.4byte	0x83
 2049 035c 05       		.uleb128 0x5
 2050 035d 03       		.byte	0x3
 2051 035e 00000000 		.4byte	diff
 2052 0362 0E       		.uleb128 0xe
 2053 0363 0F020000 		.4byte	.LASF42
 2054 0367 01       		.byte	0x1
 2055 0368 1C       		.byte	0x1c
 2056 0369 83000000 		.4byte	0x83
 2057 036d 05       		.uleb128 0x5
 2058 036e 03       		.byte	0x3
 2059 036f 00000000 		.4byte	diff2
 2060 0373 0F       		.uleb128 0xf
 2061 0374 6F6C6400 		.ascii	"old\000"
 2062 0378 01       		.byte	0x1
 2063 0379 1C       		.byte	0x1c
 2064 037a 83000000 		.4byte	0x83
 2065 037e 05       		.uleb128 0x5
 2066 037f 03       		.byte	0x3
 2067 0380 00000000 		.4byte	old
 2068 0384 0E       		.uleb128 0xe
 2069 0385 C3010000 		.4byte	.LASF43
 2070 0389 01       		.byte	0x1
 2071 038a 1C       		.byte	0x1c
 2072 038b 83000000 		.4byte	0x83
 2073 038f 05       		.uleb128 0x5
 2074 0390 03       		.byte	0x3
 2075 0391 00000000 		.4byte	counter
 2076 0395 0E       		.uleb128 0xe
 2077 0396 9B010000 		.4byte	.LASF44
 2078 039a 01       		.byte	0x1
 2079 039b 1D       		.byte	0x1d
 2080 039c 9D000000 		.4byte	0x9d
 2081 03a0 05       		.uleb128 0x5
 2082 03a1 03       		.byte	0x3
 2083 03a2 00000000 		.4byte	FirstCall
 2084 03a6 0E       		.uleb128 0xe
 2085 03a7 21000000 		.4byte	.LASF45
 2086 03ab 01       		.byte	0x1
 2087 03ac 1F       		.byte	0x1f
 2088 03ad 83000000 		.4byte	0x83
 2089 03b1 05       		.uleb128 0x5
 2090 03b2 03       		.byte	0x3
 2091 03b3 00000000 		.4byte	accroed
 2092 03b7 0E       		.uleb128 0xe
 2093 03b8 24020000 		.4byte	.LASF46
 2094 03bc 01       		.byte	0x1
ARM GAS  C:\Users\LINETT~1\AppData\Local\Temp\ccb9UJpd.s 			page 44


 2095 03bd 20       		.byte	0x20
 2096 03be 83000000 		.4byte	0x83
 2097 03c2 05       		.uleb128 0x5
 2098 03c3 03       		.byte	0x3
 2099 03c4 00000000 		.4byte	accgroen
 2100 03c8 0F       		.uleb128 0xf
 2101 03c9 454D4700 		.ascii	"EMG\000"
 2102 03cd 01       		.byte	0x1
 2103 03ce 21       		.byte	0x21
 2104 03cf 83000000 		.4byte	0x83
 2105 03d3 05       		.uleb128 0x5
 2106 03d4 03       		.byte	0x3
 2107 03d5 00000000 		.4byte	EMG
 2108 03d9 0C       		.uleb128 0xc
 2109 03da 83000000 		.4byte	0x83
 2110 03de E9030000 		.4byte	0x3e9
 2111 03e2 0D       		.uleb128 0xd
 2112 03e3 A4000000 		.4byte	0xa4
 2113 03e7 02       		.byte	0x2
 2114 03e8 00       		.byte	0
 2115 03e9 0E       		.uleb128 0xe
 2116 03ea 12030000 		.4byte	.LASF47
 2117 03ee 01       		.byte	0x1
 2118 03ef 22       		.byte	0x22
 2119 03f0 D9030000 		.4byte	0x3d9
 2120 03f4 05       		.uleb128 0x5
 2121 03f5 03       		.byte	0x3
 2122 03f6 00000000 		.4byte	result
 2123 03fa 0E       		.uleb128 0xe
 2124 03fb 8A010000 		.4byte	.LASF48
 2125 03ff 01       		.byte	0x1
 2126 0400 23       		.byte	0x23
 2127 0401 6B000000 		.4byte	0x6b
 2128 0405 05       		.uleb128 0x5
 2129 0406 03       		.byte	0x3
 2130 0407 00000000 		.4byte	data_ready
 2131 040b 0E       		.uleb128 0xe
 2132 040c 7C010000 		.4byte	.LASF49
 2133 0410 01       		.byte	0x1
 2134 0411 25       		.byte	0x25
 2135 0412 83000000 		.4byte	0x83
 2136 0416 05       		.uleb128 0x5
 2137 0417 03       		.byte	0x3
 2138 0418 00000000 		.4byte	mav_data_roed
 2139 041c 0E       		.uleb128 0xe
 2140 041d 15020000 		.4byte	.LASF50
 2141 0421 01       		.byte	0x1
 2142 0422 26       		.byte	0x26
 2143 0423 83000000 		.4byte	0x83
 2144 0427 05       		.uleb128 0x5
 2145 0428 03       		.byte	0x3
 2146 0429 00000000 		.4byte	mav_data_groen
 2147 042d 0E       		.uleb128 0xe
 2148 042e 5A010000 		.4byte	.LASF51
 2149 0432 01       		.byte	0x1
 2150 0433 27       		.byte	0x27
 2151 0434 83000000 		.4byte	0x83
ARM GAS  C:\Users\LINETT~1\AppData\Local\Temp\ccb9UJpd.s 			page 45


 2152 0438 05       		.uleb128 0x5
 2153 0439 03       		.byte	0x3
 2154 043a 00000000 		.4byte	samlet_grader
 2155 043e 0E       		.uleb128 0xe
 2156 043f 62020000 		.4byte	.LASF52
 2157 0443 01       		.byte	0x1
 2158 0444 28       		.byte	0x28
 2159 0445 83000000 		.4byte	0x83
 2160 0449 05       		.uleb128 0x5
 2161 044a 03       		.byte	0x3
 2162 044b 00000000 		.4byte	low_pass_data
 2163 044f 0E       		.uleb128 0xe
 2164 0450 00000000 		.4byte	.LASF53
 2165 0454 01       		.byte	0x1
 2166 0455 29       		.byte	0x29
 2167 0456 83000000 		.4byte	0x83
 2168 045a 05       		.uleb128 0x5
 2169 045b 03       		.byte	0x3
 2170 045c 00000000 		.4byte	diff_data
 2171 0460 00       		.byte	0
 2172              		.section	.debug_abbrev,"",%progbits
 2173              	.Ldebug_abbrev0:
 2174 0000 01       		.uleb128 0x1
 2175 0001 11       		.uleb128 0x11
 2176 0002 01       		.byte	0x1
 2177 0003 25       		.uleb128 0x25
 2178 0004 0E       		.uleb128 0xe
 2179 0005 13       		.uleb128 0x13
 2180 0006 0B       		.uleb128 0xb
 2181 0007 03       		.uleb128 0x3
 2182 0008 0E       		.uleb128 0xe
 2183 0009 1B       		.uleb128 0x1b
 2184 000a 0E       		.uleb128 0xe
 2185 000b 55       		.uleb128 0x55
 2186 000c 17       		.uleb128 0x17
 2187 000d 11       		.uleb128 0x11
 2188 000e 01       		.uleb128 0x1
 2189 000f 10       		.uleb128 0x10
 2190 0010 17       		.uleb128 0x17
 2191 0011 00       		.byte	0
 2192 0012 00       		.byte	0
 2193 0013 02       		.uleb128 0x2
 2194 0014 24       		.uleb128 0x24
 2195 0015 00       		.byte	0
 2196 0016 0B       		.uleb128 0xb
 2197 0017 0B       		.uleb128 0xb
 2198 0018 3E       		.uleb128 0x3e
 2199 0019 0B       		.uleb128 0xb
 2200 001a 03       		.uleb128 0x3
 2201 001b 0E       		.uleb128 0xe
 2202 001c 00       		.byte	0
 2203 001d 00       		.byte	0
 2204 001e 03       		.uleb128 0x3
 2205 001f 24       		.uleb128 0x24
 2206 0020 00       		.byte	0
 2207 0021 0B       		.uleb128 0xb
 2208 0022 0B       		.uleb128 0xb
ARM GAS  C:\Users\LINETT~1\AppData\Local\Temp\ccb9UJpd.s 			page 46


 2209 0023 3E       		.uleb128 0x3e
 2210 0024 0B       		.uleb128 0xb
 2211 0025 03       		.uleb128 0x3
 2212 0026 08       		.uleb128 0x8
 2213 0027 00       		.byte	0
 2214 0028 00       		.byte	0
 2215 0029 04       		.uleb128 0x4
 2216 002a 16       		.uleb128 0x16
 2217 002b 00       		.byte	0
 2218 002c 03       		.uleb128 0x3
 2219 002d 0E       		.uleb128 0xe
 2220 002e 3A       		.uleb128 0x3a
 2221 002f 0B       		.uleb128 0xb
 2222 0030 3B       		.uleb128 0x3b
 2223 0031 05       		.uleb128 0x5
 2224 0032 49       		.uleb128 0x49
 2225 0033 13       		.uleb128 0x13
 2226 0034 00       		.byte	0
 2227 0035 00       		.byte	0
 2228 0036 05       		.uleb128 0x5
 2229 0037 2E       		.uleb128 0x2e
 2230 0038 01       		.byte	0x1
 2231 0039 3F       		.uleb128 0x3f
 2232 003a 19       		.uleb128 0x19
 2233 003b 03       		.uleb128 0x3
 2234 003c 0E       		.uleb128 0xe
 2235 003d 3A       		.uleb128 0x3a
 2236 003e 0B       		.uleb128 0xb
 2237 003f 3B       		.uleb128 0x3b
 2238 0040 0B       		.uleb128 0xb
 2239 0041 27       		.uleb128 0x27
 2240 0042 19       		.uleb128 0x19
 2241 0043 49       		.uleb128 0x49
 2242 0044 13       		.uleb128 0x13
 2243 0045 11       		.uleb128 0x11
 2244 0046 01       		.uleb128 0x1
 2245 0047 12       		.uleb128 0x12
 2246 0048 06       		.uleb128 0x6
 2247 0049 40       		.uleb128 0x40
 2248 004a 18       		.uleb128 0x18
 2249 004b 9642     		.uleb128 0x2116
 2250 004d 19       		.uleb128 0x19
 2251 004e 01       		.uleb128 0x1
 2252 004f 13       		.uleb128 0x13
 2253 0050 00       		.byte	0
 2254 0051 00       		.byte	0
 2255 0052 06       		.uleb128 0x6
 2256 0053 05       		.uleb128 0x5
 2257 0054 00       		.byte	0
 2258 0055 03       		.uleb128 0x3
 2259 0056 08       		.uleb128 0x8
 2260 0057 3A       		.uleb128 0x3a
 2261 0058 0B       		.uleb128 0xb
 2262 0059 3B       		.uleb128 0x3b
 2263 005a 0B       		.uleb128 0xb
 2264 005b 49       		.uleb128 0x49
 2265 005c 13       		.uleb128 0x13
ARM GAS  C:\Users\LINETT~1\AppData\Local\Temp\ccb9UJpd.s 			page 47


 2266 005d 02       		.uleb128 0x2
 2267 005e 18       		.uleb128 0x18
 2268 005f 00       		.byte	0
 2269 0060 00       		.byte	0
 2270 0061 07       		.uleb128 0x7
 2271 0062 05       		.uleb128 0x5
 2272 0063 00       		.byte	0
 2273 0064 03       		.uleb128 0x3
 2274 0065 0E       		.uleb128 0xe
 2275 0066 3A       		.uleb128 0x3a
 2276 0067 0B       		.uleb128 0xb
 2277 0068 3B       		.uleb128 0x3b
 2278 0069 0B       		.uleb128 0xb
 2279 006a 49       		.uleb128 0x49
 2280 006b 13       		.uleb128 0x13
 2281 006c 02       		.uleb128 0x2
 2282 006d 18       		.uleb128 0x18
 2283 006e 00       		.byte	0
 2284 006f 00       		.byte	0
 2285 0070 08       		.uleb128 0x8
 2286 0071 34       		.uleb128 0x34
 2287 0072 00       		.byte	0
 2288 0073 03       		.uleb128 0x3
 2289 0074 08       		.uleb128 0x8
 2290 0075 3A       		.uleb128 0x3a
 2291 0076 0B       		.uleb128 0xb
 2292 0077 3B       		.uleb128 0x3b
 2293 0078 0B       		.uleb128 0xb
 2294 0079 49       		.uleb128 0x49
 2295 007a 13       		.uleb128 0x13
 2296 007b 02       		.uleb128 0x2
 2297 007c 18       		.uleb128 0x18
 2298 007d 00       		.byte	0
 2299 007e 00       		.byte	0
 2300 007f 09       		.uleb128 0x9
 2301 0080 2E       		.uleb128 0x2e
 2302 0081 00       		.byte	0
 2303 0082 3F       		.uleb128 0x3f
 2304 0083 19       		.uleb128 0x19
 2305 0084 03       		.uleb128 0x3
 2306 0085 0E       		.uleb128 0xe
 2307 0086 3A       		.uleb128 0x3a
 2308 0087 0B       		.uleb128 0xb
 2309 0088 3B       		.uleb128 0x3b
 2310 0089 0B       		.uleb128 0xb
 2311 008a 27       		.uleb128 0x27
 2312 008b 19       		.uleb128 0x19
 2313 008c 11       		.uleb128 0x11
 2314 008d 01       		.uleb128 0x1
 2315 008e 12       		.uleb128 0x12
 2316 008f 06       		.uleb128 0x6
 2317 0090 40       		.uleb128 0x40
 2318 0091 18       		.uleb128 0x18
 2319 0092 9642     		.uleb128 0x2116
 2320 0094 19       		.uleb128 0x19
 2321 0095 00       		.byte	0
 2322 0096 00       		.byte	0
ARM GAS  C:\Users\LINETT~1\AppData\Local\Temp\ccb9UJpd.s 			page 48


 2323 0097 0A       		.uleb128 0xa
 2324 0098 2E       		.uleb128 0x2e
 2325 0099 00       		.byte	0
 2326 009a 3F       		.uleb128 0x3f
 2327 009b 19       		.uleb128 0x19
 2328 009c 03       		.uleb128 0x3
 2329 009d 0E       		.uleb128 0xe
 2330 009e 3A       		.uleb128 0x3a
 2331 009f 0B       		.uleb128 0xb
 2332 00a0 3B       		.uleb128 0x3b
 2333 00a1 05       		.uleb128 0x5
 2334 00a2 27       		.uleb128 0x27
 2335 00a3 19       		.uleb128 0x19
 2336 00a4 11       		.uleb128 0x11
 2337 00a5 01       		.uleb128 0x1
 2338 00a6 12       		.uleb128 0x12
 2339 00a7 06       		.uleb128 0x6
 2340 00a8 40       		.uleb128 0x40
 2341 00a9 18       		.uleb128 0x18
 2342 00aa 9642     		.uleb128 0x2116
 2343 00ac 19       		.uleb128 0x19
 2344 00ad 00       		.byte	0
 2345 00ae 00       		.byte	0
 2346 00af 0B       		.uleb128 0xb
 2347 00b0 2E       		.uleb128 0x2e
 2348 00b1 00       		.byte	0
 2349 00b2 3F       		.uleb128 0x3f
 2350 00b3 19       		.uleb128 0x19
 2351 00b4 03       		.uleb128 0x3
 2352 00b5 0E       		.uleb128 0xe
 2353 00b6 3A       		.uleb128 0x3a
 2354 00b7 0B       		.uleb128 0xb
 2355 00b8 3B       		.uleb128 0x3b
 2356 00b9 05       		.uleb128 0x5
 2357 00ba 49       		.uleb128 0x49
 2358 00bb 13       		.uleb128 0x13
 2359 00bc 11       		.uleb128 0x11
 2360 00bd 01       		.uleb128 0x1
 2361 00be 12       		.uleb128 0x12
 2362 00bf 06       		.uleb128 0x6
 2363 00c0 40       		.uleb128 0x40
 2364 00c1 18       		.uleb128 0x18
 2365 00c2 9642     		.uleb128 0x2116
 2366 00c4 19       		.uleb128 0x19
 2367 00c5 00       		.byte	0
 2368 00c6 00       		.byte	0
 2369 00c7 0C       		.uleb128 0xc
 2370 00c8 01       		.uleb128 0x1
 2371 00c9 01       		.byte	0x1
 2372 00ca 49       		.uleb128 0x49
 2373 00cb 13       		.uleb128 0x13
 2374 00cc 01       		.uleb128 0x1
 2375 00cd 13       		.uleb128 0x13
 2376 00ce 00       		.byte	0
 2377 00cf 00       		.byte	0
 2378 00d0 0D       		.uleb128 0xd
 2379 00d1 21       		.uleb128 0x21
ARM GAS  C:\Users\LINETT~1\AppData\Local\Temp\ccb9UJpd.s 			page 49


 2380 00d2 00       		.byte	0
 2381 00d3 49       		.uleb128 0x49
 2382 00d4 13       		.uleb128 0x13
 2383 00d5 2F       		.uleb128 0x2f
 2384 00d6 0B       		.uleb128 0xb
 2385 00d7 00       		.byte	0
 2386 00d8 00       		.byte	0
 2387 00d9 0E       		.uleb128 0xe
 2388 00da 34       		.uleb128 0x34
 2389 00db 00       		.byte	0
 2390 00dc 03       		.uleb128 0x3
 2391 00dd 0E       		.uleb128 0xe
 2392 00de 3A       		.uleb128 0x3a
 2393 00df 0B       		.uleb128 0xb
 2394 00e0 3B       		.uleb128 0x3b
 2395 00e1 0B       		.uleb128 0xb
 2396 00e2 49       		.uleb128 0x49
 2397 00e3 13       		.uleb128 0x13
 2398 00e4 3F       		.uleb128 0x3f
 2399 00e5 19       		.uleb128 0x19
 2400 00e6 02       		.uleb128 0x2
 2401 00e7 18       		.uleb128 0x18
 2402 00e8 00       		.byte	0
 2403 00e9 00       		.byte	0
 2404 00ea 0F       		.uleb128 0xf
 2405 00eb 34       		.uleb128 0x34
 2406 00ec 00       		.byte	0
 2407 00ed 03       		.uleb128 0x3
 2408 00ee 08       		.uleb128 0x8
 2409 00ef 3A       		.uleb128 0x3a
 2410 00f0 0B       		.uleb128 0xb
 2411 00f1 3B       		.uleb128 0x3b
 2412 00f2 0B       		.uleb128 0xb
 2413 00f3 49       		.uleb128 0x49
 2414 00f4 13       		.uleb128 0x13
 2415 00f5 3F       		.uleb128 0x3f
 2416 00f6 19       		.uleb128 0x19
 2417 00f7 02       		.uleb128 0x2
 2418 00f8 18       		.uleb128 0x18
 2419 00f9 00       		.byte	0
 2420 00fa 00       		.byte	0
 2421 00fb 00       		.byte	0
 2422              		.section	.debug_aranges,"",%progbits
 2423 0000 64000000 		.4byte	0x64
 2424 0004 0200     		.2byte	0x2
 2425 0006 00000000 		.4byte	.Ldebug_info0
 2426 000a 04       		.byte	0x4
 2427 000b 00       		.byte	0
 2428 000c 0000     		.2byte	0
 2429 000e 0000     		.2byte	0
 2430 0010 00000000 		.4byte	.LFB37
 2431 0014 5C000000 		.4byte	.LFE37-.LFB37
 2432 0018 00000000 		.4byte	.LFB38
 2433 001c 04010000 		.4byte	.LFE38-.LFB38
 2434 0020 00000000 		.4byte	.LFB39
 2435 0024 0C010000 		.4byte	.LFE39-.LFB39
 2436 0028 00000000 		.4byte	.LFB40
ARM GAS  C:\Users\LINETT~1\AppData\Local\Temp\ccb9UJpd.s 			page 50


 2437 002c 24010000 		.4byte	.LFE40-.LFB40
 2438 0030 00000000 		.4byte	.LFB41
 2439 0034 1C010000 		.4byte	.LFE41-.LFB41
 2440 0038 00000000 		.4byte	.LFB42
 2441 003c 1E010000 		.4byte	.LFE42-.LFB42
 2442 0040 00000000 		.4byte	.LFB43
 2443 0044 A8000000 		.4byte	.LFE43-.LFB43
 2444 0048 00000000 		.4byte	.LFB44
 2445 004c 84010000 		.4byte	.LFE44-.LFB44
 2446 0050 00000000 		.4byte	.LFB45
 2447 0054 64000000 		.4byte	.LFE45-.LFB45
 2448 0058 00000000 		.4byte	.LFB46
 2449 005c 3C000000 		.4byte	.LFE46-.LFB46
 2450 0060 00000000 		.4byte	0
 2451 0064 00000000 		.4byte	0
 2452              		.section	.debug_ranges,"",%progbits
 2453              	.Ldebug_ranges0:
 2454 0000 00000000 		.4byte	.LFB37
 2455 0004 5C000000 		.4byte	.LFE37
 2456 0008 00000000 		.4byte	.LFB38
 2457 000c 04010000 		.4byte	.LFE38
 2458 0010 00000000 		.4byte	.LFB39
 2459 0014 0C010000 		.4byte	.LFE39
 2460 0018 00000000 		.4byte	.LFB40
 2461 001c 24010000 		.4byte	.LFE40
 2462 0020 00000000 		.4byte	.LFB41
 2463 0024 1C010000 		.4byte	.LFE41
 2464 0028 00000000 		.4byte	.LFB42
 2465 002c 1E010000 		.4byte	.LFE42
 2466 0030 00000000 		.4byte	.LFB43
 2467 0034 A8000000 		.4byte	.LFE43
 2468 0038 00000000 		.4byte	.LFB44
 2469 003c 84010000 		.4byte	.LFE44
 2470 0040 00000000 		.4byte	.LFB45
 2471 0044 64000000 		.4byte	.LFE45
 2472 0048 00000000 		.4byte	.LFB46
 2473 004c 3C000000 		.4byte	.LFE46
 2474 0050 00000000 		.4byte	0
 2475 0054 00000000 		.4byte	0
 2476              		.section	.debug_line,"",%progbits
 2477              	.Ldebug_line0:
 2478 0000 3B020000 		.section	.debug_str,"MS",%progbits,1
 2478      02004300 
 2478      00000201 
 2478      FB0E0D00 
 2478      01010101 
 2479              	.LASF53:
 2480 0000 64696666 		.ascii	"diff_data\000"
 2480      5F646174 
 2480      6100
 2481              	.LASF33:
 2482 000a 785F6C6F 		.ascii	"x_low\000"
 2482      7700
 2483              	.LASF31:
 2484 0010 79325F6D 		.ascii	"y2_mavg\000"
 2484      61766700 
 2485              	.LASF37:
ARM GAS  C:\Users\LINETT~1\AppData\Local\Temp\ccb9UJpd.s 			page 51


 2486 0018 76616C75 		.ascii	"value_in\000"
 2486      655F696E 
 2486      00
 2487              	.LASF45:
 2488 0021 61636372 		.ascii	"accroed\000"
 2488      6F656400 
 2489              	.LASF7:
 2490 0029 6C6F6E67 		.ascii	"long long unsigned int\000"
 2490      206C6F6E 
 2490      6720756E 
 2490      7369676E 
 2490      65642069 
 2491              	.LASF41:
 2492 0040 64696666 		.ascii	"diff\000"
 2492      00
 2493              	.LASF27:
 2494 0045 785F6D61 		.ascii	"x_mavg\000"
 2494      766700
 2495              	.LASF6:
 2496 004c 6C6F6E67 		.ascii	"long long int\000"
 2496      206C6F6E 
 2496      6720696E 
 2496      7400
 2497              	.LASF0:
 2498 005a 7369676E 		.ascii	"signed char\000"
 2498      65642063 
 2498      68617200 
 2499              	.LASF55:
 2500 0066 2E5C6D61 		.ascii	".\\main.c\000"
 2500      696E2E63 
 2500      00
 2501              	.LASF4:
 2502 006f 6C6F6E67 		.ascii	"long int\000"
 2502      20696E74 
 2502      00
 2503              	.LASF9:
 2504 0078 75696E74 		.ascii	"uint8\000"
 2504      3800
 2505              	.LASF38:
 2506 007e 76616C75 		.ascii	"value_out\000"
 2506      655F6F75 
 2506      7400
 2507              	.LASF28:
 2508 0088 795F6D61 		.ascii	"y_mavg\000"
 2508      766700
 2509              	.LASF13:
 2510 008f 646F7562 		.ascii	"double\000"
 2510      6C6500
 2511              	.LASF10:
 2512 0096 75696E74 		.ascii	"uint32\000"
 2512      333200
 2513              	.LASF36:
 2514 009d 615F6C6F 		.ascii	"a_low\000"
 2514      7700
 2515              	.LASF35:
 2516 00a3 625F6C6F 		.ascii	"b_low\000"
 2516      7700
ARM GAS  C:\Users\LINETT~1\AppData\Local\Temp\ccb9UJpd.s 			page 52


 2517              	.LASF29:
 2518 00a9 625F6D61 		.ascii	"b_mavg\000"
 2518      766700
 2519              	.LASF8:
 2520 00b0 756E7369 		.ascii	"unsigned int\000"
 2520      676E6564 
 2520      20696E74 
 2520      00
 2521              	.LASF5:
 2522 00bd 6C6F6E67 		.ascii	"long unsigned int\000"
 2522      20756E73 
 2522      69676E65 
 2522      6420696E 
 2522      7400
 2523              	.LASF18:
 2524 00cf 64617461 		.ascii	"data\000"
 2524      00
 2525              	.LASF19:
 2526 00d4 6D617667 		.ascii	"mavg_filter2\000"
 2526      5F66696C 
 2526      74657232 
 2526      00
 2527              	.LASF3:
 2528 00e1 73686F72 		.ascii	"short unsigned int\000"
 2528      7420756E 
 2528      7369676E 
 2528      65642069 
 2528      6E7400
 2529              	.LASF56:
 2530 00f4 433A5C55 		.ascii	"C:\\Users\\Linette Helena\\Documents\\GitHub\\ST4\\"
 2530      73657273 
 2530      5C4C696E 
 2530      65747465 
 2530      2048656C 
 2531 0121 50536F43 		.ascii	"PSoC\\ADC_filtre_samlet_grader.cydsn\000"
 2531      5C414443 
 2531      5F66696C 
 2531      7472655F 
 2531      73616D6C 
 2532              	.LASF21:
 2533 0145 726F6564 		.ascii	"roed_grader\000"
 2533      5F677261 
 2533      64657200 
 2534              	.LASF15:
 2535 0151 73697A65 		.ascii	"sizetype\000"
 2535      74797065 
 2535      00
 2536              	.LASF51:
 2537 015a 73616D6C 		.ascii	"samlet_grader\000"
 2537      65745F67 
 2537      72616465 
 2537      7200
 2538              	.LASF40:
 2539 0168 67726164 		.ascii	"grader_roed\000"
 2539      65725F72 
 2539      6F656400 
 2540              	.LASF30:
ARM GAS  C:\Users\LINETT~1\AppData\Local\Temp\ccb9UJpd.s 			page 53


 2541 0174 78325F6D 		.ascii	"x2_mavg\000"
 2541      61766700 
 2542              	.LASF49:
 2543 017c 6D61765F 		.ascii	"mav_data_roed\000"
 2543      64617461 
 2543      5F726F65 
 2543      6400
 2544              	.LASF48:
 2545 018a 64617461 		.ascii	"data_ready\000"
 2545      5F726561 
 2545      647900
 2546              	.LASF12:
 2547 0195 666C6F61 		.ascii	"float\000"
 2547      7400
 2548              	.LASF44:
 2549 019b 46697273 		.ascii	"FirstCall\000"
 2549      7443616C 
 2549      6C00
 2550              	.LASF1:
 2551 01a5 756E7369 		.ascii	"unsigned char\000"
 2551      676E6564 
 2551      20636861 
 2551      7200
 2552              	.LASF34:
 2553 01b3 795F6C6F 		.ascii	"y_low\000"
 2553      7700
 2554              	.LASF2:
 2555 01b9 73686F72 		.ascii	"short int\000"
 2555      7420696E 
 2555      7400
 2556              	.LASF43:
 2557 01c3 636F756E 		.ascii	"counter\000"
 2557      74657200 
 2558              	.LASF22:
 2559 01cb 67726F65 		.ascii	"groen_grader\000"
 2559      6E5F6772 
 2559      61646572 
 2559      00
 2560              	.LASF20:
 2561 01d8 6C6F775F 		.ascii	"low_pass_filter\000"
 2561      70617373 
 2561      5F66696C 
 2561      74657200 
 2562              	.LASF25:
 2563 01e8 50696E5F 		.ascii	"Pin_SW2_handler\000"
 2563      5357325F 
 2563      68616E64 
 2563      6C657200 
 2564              	.LASF14:
 2565 01f8 63686172 		.ascii	"char\000"
 2565      00
 2566              	.LASF16:
 2567 01fd 666C6F6F 		.ascii	"floor_and_convert\000"
 2567      725F616E 
 2567      645F636F 
 2567      6E766572 
 2567      7400
ARM GAS  C:\Users\LINETT~1\AppData\Local\Temp\ccb9UJpd.s 			page 54


 2568              	.LASF42:
 2569 020f 64696666 		.ascii	"diff2\000"
 2569      3200
 2570              	.LASF50:
 2571 0215 6D61765F 		.ascii	"mav_data_groen\000"
 2571      64617461 
 2571      5F67726F 
 2571      656E00
 2572              	.LASF46:
 2573 0224 61636367 		.ascii	"accgroen\000"
 2573      726F656E 
 2573      00
 2574              	.LASF17:
 2575 022d 6D617667 		.ascii	"mavg_filter\000"
 2575      5F66696C 
 2575      74657200 
 2576              	.LASF24:
 2577 0239 4144435F 		.ascii	"ADC_interrupt\000"
 2577      696E7465 
 2577      72727570 
 2577      7400
 2578              	.LASF32:
 2579 0247 62325F6D 		.ascii	"b2_mavg\000"
 2579      61766700 
 2580              	.LASF39:
 2581 024f 67726164 		.ascii	"grader_groen\000"
 2581      65725F67 
 2581      726F656E 
 2581      00
 2582              	.LASF11:
 2583 025c 696E7431 		.ascii	"int16\000"
 2583      3600
 2584              	.LASF52:
 2585 0262 6C6F775F 		.ascii	"low_pass_data\000"
 2585      70617373 
 2585      5F646174 
 2585      6100
 2586              	.LASF54:
 2587 0270 474E5520 		.ascii	"GNU C 4.9.3 20150303 (release) [ARM/embedded-4_9-br"
 2587      4320342E 
 2587      392E3320 
 2587      32303135 
 2587      30333033 
 2588 02a3 616E6368 		.ascii	"anch revision 221220] -mcpu=cortex-m0 -mthumb -g -O"
 2588      20726576 
 2588      6973696F 
 2588      6E203232 
 2588      31323230 
 2589 02d6 30202D66 		.ascii	"0 -ffunction-sections -ffat-lto-objects\000"
 2589      66756E63 
 2589      74696F6E 
 2589      2D736563 
 2589      74696F6E 
 2590              	.LASF23:
 2591 02fe 64696666 		.ascii	"differentiator\000"
 2591      6572656E 
 2591      74696174 
ARM GAS  C:\Users\LINETT~1\AppData\Local\Temp\ccb9UJpd.s 			page 55


 2591      6F7200
 2592              	.LASF26:
 2593 030d 6D61696E 		.ascii	"main\000"
 2593      00
 2594              	.LASF47:
 2595 0312 72657375 		.ascii	"result\000"
 2595      6C7400
 2596              		.ident	"GCC: (GNU Tools for ARM Embedded Processors) 4.9.3 20150303 (release) [ARM/embedded-4_9-br
